   1               		.file	"md5.c"
   2               	__SP_H__ = 0x3e
   3               	__SP_L__ = 0x3d
   4               	__SREG__ = 0x3f
   5               	__tmp_reg__ = 0
   6               	__zero_reg__ = 1
   9               		.text
  10               	.Ltext0:
  82               	md5_encode:
  83               		.stabd	46,0,0
   1:../freeRTOS750/lib_iinchip/md5.c **** /**
   2:../freeRTOS750/lib_iinchip/md5.c ****  @file		md5.c
   3:../freeRTOS750/lib_iinchip/md5.c ****  @brief 		support MD5 for PPPoE CHAP mode
   4:../freeRTOS750/lib_iinchip/md5.c **** 
   5:../freeRTOS750/lib_iinchip/md5.c ****  taken from RFC-1321/Appendix A.3
   6:../freeRTOS750/lib_iinchip/md5.c ****  MD5C.C - RSA Data Security, Inc., MD5 message-digest algorithm
   7:../freeRTOS750/lib_iinchip/md5.c ****  */
   8:../freeRTOS750/lib_iinchip/md5.c **** 
   9:../freeRTOS750/lib_iinchip/md5.c **** #include <string.h>
  10:../freeRTOS750/lib_iinchip/md5.c **** 
  11:../freeRTOS750/lib_iinchip/md5.c **** #include <avr/io.h>
  12:../freeRTOS750/lib_iinchip/md5.c **** 
  13:../freeRTOS750/lib_iinchip/md5.c **** #include "md5.h"
  14:../freeRTOS750/lib_iinchip/md5.c **** 
  15:../freeRTOS750/lib_iinchip/md5.c **** // Constants for Transform routine.
  16:../freeRTOS750/lib_iinchip/md5.c **** #define S11    7
  17:../freeRTOS750/lib_iinchip/md5.c **** #define S12   12
  18:../freeRTOS750/lib_iinchip/md5.c **** #define S13   17
  19:../freeRTOS750/lib_iinchip/md5.c **** #define S14   22
  20:../freeRTOS750/lib_iinchip/md5.c **** #define S21    5
  21:../freeRTOS750/lib_iinchip/md5.c **** #define S22    9
  22:../freeRTOS750/lib_iinchip/md5.c **** #define S23   14
  23:../freeRTOS750/lib_iinchip/md5.c **** #define S24   20
  24:../freeRTOS750/lib_iinchip/md5.c **** #define S31    4
  25:../freeRTOS750/lib_iinchip/md5.c **** #define S32   11
  26:../freeRTOS750/lib_iinchip/md5.c **** #define S33   16
  27:../freeRTOS750/lib_iinchip/md5.c **** #define S34   23
  28:../freeRTOS750/lib_iinchip/md5.c **** #define S41    6
  29:../freeRTOS750/lib_iinchip/md5.c **** #define S42   10
  30:../freeRTOS750/lib_iinchip/md5.c **** #define S43   15
  31:../freeRTOS750/lib_iinchip/md5.c **** #define S44   21
  32:../freeRTOS750/lib_iinchip/md5.c **** 
  33:../freeRTOS750/lib_iinchip/md5.c **** static void md5_transform (uint32_t[4], uint8_t [64]);
  34:../freeRTOS750/lib_iinchip/md5.c **** static void md5_encode    (uint8_t *, uint32_t *, uint32_t);
  35:../freeRTOS750/lib_iinchip/md5.c **** static void md5_decode    (uint32_t *, uint8_t *, uint32_t);
  36:../freeRTOS750/lib_iinchip/md5.c **** 
  37:../freeRTOS750/lib_iinchip/md5.c **** static uint8_t padding[64] = {
  38:../freeRTOS750/lib_iinchip/md5.c **** 	0x80, 0, 0, 0, 0, 0, 0, 0, 0, 0, 0, 0, 0, 0, 0, 0, 0, 0, 0, 0,
  39:../freeRTOS750/lib_iinchip/md5.c **** 	0, 0, 0, 0, 0, 0, 0, 0, 0, 0, 0, 0, 0, 0, 0, 0, 0, 0, 0, 0, 0,
  40:../freeRTOS750/lib_iinchip/md5.c **** 	0, 0, 0, 0, 0, 0, 0, 0, 0, 0, 0, 0, 0, 0, 0, 0, 0, 0, 0, 0, 0,
  41:../freeRTOS750/lib_iinchip/md5.c **** 	0, 0
  42:../freeRTOS750/lib_iinchip/md5.c **** };
  43:../freeRTOS750/lib_iinchip/md5.c **** 
  44:../freeRTOS750/lib_iinchip/md5.c **** // F, G, H and I are basic md5 functions.
  45:../freeRTOS750/lib_iinchip/md5.c **** #define F(x, y, z) (((x) & (y)) | ((~x) & (z)))
  46:../freeRTOS750/lib_iinchip/md5.c **** #define G(x, y, z) (((x) & (z)) | ((y) & (~z)))
  47:../freeRTOS750/lib_iinchip/md5.c **** #define H(x, y, z) ((x) ^ (y) ^ (z))
  48:../freeRTOS750/lib_iinchip/md5.c **** #define I(x, y, z) ((y) ^ ((x) | (~z)))
  49:../freeRTOS750/lib_iinchip/md5.c **** 
  50:../freeRTOS750/lib_iinchip/md5.c **** /**
  51:../freeRTOS750/lib_iinchip/md5.c ****  @brief ROTATE_LEFT rotates x left n bits.
  52:../freeRTOS750/lib_iinchip/md5.c ****  */
  53:../freeRTOS750/lib_iinchip/md5.c **** #define ROTATE_LEFT(x, n) (((x) << (n)) | ((x) >> (32-(n))))
  54:../freeRTOS750/lib_iinchip/md5.c **** 
  55:../freeRTOS750/lib_iinchip/md5.c **** 
  56:../freeRTOS750/lib_iinchip/md5.c **** 	uint32_t FF(uint32_t a, uint32_t b, uint32_t c, uint32_t d, uint32_t x, uint32_t s, uint32_t ac)
  57:../freeRTOS750/lib_iinchip/md5.c **** 	{
  58:../freeRTOS750/lib_iinchip/md5.c **** 		a += F (b, c, d) + x + (uint32_t)(ac);
  59:../freeRTOS750/lib_iinchip/md5.c **** 		a = ROTATE_LEFT (a, s);
  60:../freeRTOS750/lib_iinchip/md5.c **** 		a += b;
  61:../freeRTOS750/lib_iinchip/md5.c **** 		return a;
  62:../freeRTOS750/lib_iinchip/md5.c **** 	}
  63:../freeRTOS750/lib_iinchip/md5.c **** 	uint32_t GG(uint32_t a, uint32_t b, uint32_t c, uint32_t d, uint32_t x, uint32_t s, uint32_t ac)
  64:../freeRTOS750/lib_iinchip/md5.c **** 	{
  65:../freeRTOS750/lib_iinchip/md5.c **** 		a += G (b, c, d) + x + (uint32_t)(ac);
  66:../freeRTOS750/lib_iinchip/md5.c **** 		a = ROTATE_LEFT (a, s);
  67:../freeRTOS750/lib_iinchip/md5.c **** 		a += b;
  68:../freeRTOS750/lib_iinchip/md5.c **** 		return a;
  69:../freeRTOS750/lib_iinchip/md5.c **** 	}
  70:../freeRTOS750/lib_iinchip/md5.c **** 
  71:../freeRTOS750/lib_iinchip/md5.c **** 	uint32_t HH(uint32_t a, uint32_t b, uint32_t c, uint32_t d, uint32_t x, uint32_t s, uint32_t ac)
  72:../freeRTOS750/lib_iinchip/md5.c **** 	{
  73:../freeRTOS750/lib_iinchip/md5.c **** 		a += H (b, c, d) + x + (uint32_t)(ac);
  74:../freeRTOS750/lib_iinchip/md5.c **** 		a = ROTATE_LEFT (a, s);
  75:../freeRTOS750/lib_iinchip/md5.c **** 		a += b;
  76:../freeRTOS750/lib_iinchip/md5.c **** 		return a;
  77:../freeRTOS750/lib_iinchip/md5.c **** 	}
  78:../freeRTOS750/lib_iinchip/md5.c **** 
  79:../freeRTOS750/lib_iinchip/md5.c **** 	uint32_t II(uint32_t a, uint32_t b, uint32_t c, uint32_t d, uint32_t x, uint32_t s, uint32_t ac)
  80:../freeRTOS750/lib_iinchip/md5.c **** 	{
  81:../freeRTOS750/lib_iinchip/md5.c **** 		a += I (b, c, d) + x + (uint32_t)(ac);
  82:../freeRTOS750/lib_iinchip/md5.c **** 		a = ROTATE_LEFT (a, s);
  83:../freeRTOS750/lib_iinchip/md5.c **** 		a += b;
  84:../freeRTOS750/lib_iinchip/md5.c **** 		return a;
  85:../freeRTOS750/lib_iinchip/md5.c **** 	}
  86:../freeRTOS750/lib_iinchip/md5.c **** 
  87:../freeRTOS750/lib_iinchip/md5.c **** /**
  88:../freeRTOS750/lib_iinchip/md5.c ****  @brief	md5 initialisation. Begins an md5 operation, writing a new context.
  89:../freeRTOS750/lib_iinchip/md5.c ****  */
  90:../freeRTOS750/lib_iinchip/md5.c **** void md5_init(md5_ctx *context)
  91:../freeRTOS750/lib_iinchip/md5.c **** {
  92:../freeRTOS750/lib_iinchip/md5.c **** 	context->count[0] = context->count[1] = 0;
  93:../freeRTOS750/lib_iinchip/md5.c **** 
  94:../freeRTOS750/lib_iinchip/md5.c **** 	// Load magic initialisation constants.
  95:../freeRTOS750/lib_iinchip/md5.c **** 	context->state[0] = 0x67452301;
  96:../freeRTOS750/lib_iinchip/md5.c **** 	context->state[1] = 0xefcdab89;
  97:../freeRTOS750/lib_iinchip/md5.c **** 	context->state[2] = 0x98badcfe;
  98:../freeRTOS750/lib_iinchip/md5.c **** 	context->state[3] = 0x10325476;
  99:../freeRTOS750/lib_iinchip/md5.c **** }
 100:../freeRTOS750/lib_iinchip/md5.c **** 
 101:../freeRTOS750/lib_iinchip/md5.c **** /**
 102:../freeRTOS750/lib_iinchip/md5.c ****  @brief	md5 block update operation. Continues an md5 message-digest operation,
 103:../freeRTOS750/lib_iinchip/md5.c **** 		processing another message block, and updating the context.
 104:../freeRTOS750/lib_iinchip/md5.c **** */
 105:../freeRTOS750/lib_iinchip/md5.c **** void md5_update(md5_ctx * context, uint8_t *input, uint32_t inputLen)
 106:../freeRTOS750/lib_iinchip/md5.c **** {
 107:../freeRTOS750/lib_iinchip/md5.c **** 	uint32_t i, index, partLen;
 108:../freeRTOS750/lib_iinchip/md5.c **** 
 109:../freeRTOS750/lib_iinchip/md5.c **** 	// Compute number of bytes mod 64
 110:../freeRTOS750/lib_iinchip/md5.c **** 	index = (uint32_t)((context->count[0] >> 3) & 0x3F);
 111:../freeRTOS750/lib_iinchip/md5.c **** 
 112:../freeRTOS750/lib_iinchip/md5.c **** 	// Update number of bits
 113:../freeRTOS750/lib_iinchip/md5.c **** 	if ((context->count[0] += ((uint32_t)inputLen << 3)) < ((uint32_t)inputLen << 3))
 114:../freeRTOS750/lib_iinchip/md5.c **** 		context->count[1]++;
 115:../freeRTOS750/lib_iinchip/md5.c **** 	context->count[1] += ((uint32_t)inputLen >> 29);
 116:../freeRTOS750/lib_iinchip/md5.c **** 
 117:../freeRTOS750/lib_iinchip/md5.c **** 	partLen = 64 - index;
 118:../freeRTOS750/lib_iinchip/md5.c **** 
 119:../freeRTOS750/lib_iinchip/md5.c **** 	// md5_Transform as many times as possible.
 120:../freeRTOS750/lib_iinchip/md5.c **** 	if (inputLen >= partLen)
 121:../freeRTOS750/lib_iinchip/md5.c **** 	{
 122:../freeRTOS750/lib_iinchip/md5.c **** 		memcpy(&context->buffer[index], input, partLen);
 123:../freeRTOS750/lib_iinchip/md5.c **** 		md5_transform(context->state, context->buffer);
 124:../freeRTOS750/lib_iinchip/md5.c **** 
 125:../freeRTOS750/lib_iinchip/md5.c **** 		for (i = partLen; i + 63 < inputLen; i += 64)
 126:../freeRTOS750/lib_iinchip/md5.c **** 			md5_transform(context->state, &input[i]);
 127:../freeRTOS750/lib_iinchip/md5.c **** 		index = 0;
 128:../freeRTOS750/lib_iinchip/md5.c **** 	}
 129:../freeRTOS750/lib_iinchip/md5.c **** 	else
 130:../freeRTOS750/lib_iinchip/md5.c **** 		i = 0;
 131:../freeRTOS750/lib_iinchip/md5.c **** 
 132:../freeRTOS750/lib_iinchip/md5.c **** 	// Buffer remaining input
 133:../freeRTOS750/lib_iinchip/md5.c **** 	memcpy(&context->buffer[index], &input[i], inputLen - i);
 134:../freeRTOS750/lib_iinchip/md5.c **** }
 135:../freeRTOS750/lib_iinchip/md5.c **** 
 136:../freeRTOS750/lib_iinchip/md5.c **** /**
 137:../freeRTOS750/lib_iinchip/md5.c ****  @brief	md5 finalisation. Ends an md5 message-digest operation, writing the
 138:../freeRTOS750/lib_iinchip/md5.c **** 		message digest and zeroing the context.
 139:../freeRTOS750/lib_iinchip/md5.c **** */
 140:../freeRTOS750/lib_iinchip/md5.c **** void md5_final(uint8_t digest[16], md5_ctx *context)
 141:../freeRTOS750/lib_iinchip/md5.c **** {
 142:../freeRTOS750/lib_iinchip/md5.c **** 	uint8_t  bits[8];
 143:../freeRTOS750/lib_iinchip/md5.c **** 	uint32_t index, padLen;
 144:../freeRTOS750/lib_iinchip/md5.c **** 
 145:../freeRTOS750/lib_iinchip/md5.c **** 	// Save number of bits
 146:../freeRTOS750/lib_iinchip/md5.c **** 	md5_encode(bits, context->count, 8);
 147:../freeRTOS750/lib_iinchip/md5.c **** 
 148:../freeRTOS750/lib_iinchip/md5.c **** 	// Pad out to 56 mod 64.
 149:../freeRTOS750/lib_iinchip/md5.c **** 	index  = (uint32_t)((context->count[0] >> 3) & 0x3f);
 150:../freeRTOS750/lib_iinchip/md5.c **** 	padLen = (index < 56) ? (56 - index) : (120 - index);
 151:../freeRTOS750/lib_iinchip/md5.c **** 	md5_update(context, padding, padLen);
 152:../freeRTOS750/lib_iinchip/md5.c **** 
 153:../freeRTOS750/lib_iinchip/md5.c **** 	// Append length (before padding)
 154:../freeRTOS750/lib_iinchip/md5.c **** 	md5_update(context, bits, 8);
 155:../freeRTOS750/lib_iinchip/md5.c **** 	// Store state in digest
 156:../freeRTOS750/lib_iinchip/md5.c **** 	md5_encode(digest, context->state, 16);
 157:../freeRTOS750/lib_iinchip/md5.c **** 
 158:../freeRTOS750/lib_iinchip/md5.c **** 	// Zero sensitive information.
 159:../freeRTOS750/lib_iinchip/md5.c **** 	memset((void*)context,0,sizeof(*context));
 160:../freeRTOS750/lib_iinchip/md5.c **** }
 161:../freeRTOS750/lib_iinchip/md5.c **** 
 162:../freeRTOS750/lib_iinchip/md5.c **** /**
 163:../freeRTOS750/lib_iinchip/md5.c ****  @brief	md5 basic transformation. Transforms state based on block.
 164:../freeRTOS750/lib_iinchip/md5.c ****  */
 165:../freeRTOS750/lib_iinchip/md5.c **** static void md5_transform(uint32_t state[4], uint8_t block[64])
 166:../freeRTOS750/lib_iinchip/md5.c **** {
 167:../freeRTOS750/lib_iinchip/md5.c **** 	uint32_t a = state[0];
 168:../freeRTOS750/lib_iinchip/md5.c **** 	uint32_t b = state[1];
 169:../freeRTOS750/lib_iinchip/md5.c **** 	uint32_t c = state[2];
 170:../freeRTOS750/lib_iinchip/md5.c **** 	uint32_t d = state[3];
 171:../freeRTOS750/lib_iinchip/md5.c **** 	uint32_t x[16];
 172:../freeRTOS750/lib_iinchip/md5.c **** 
 173:../freeRTOS750/lib_iinchip/md5.c **** 	md5_decode(x, block, 64);
 174:../freeRTOS750/lib_iinchip/md5.c **** 
 175:../freeRTOS750/lib_iinchip/md5.c **** 	// Round 1
 176:../freeRTOS750/lib_iinchip/md5.c **** 	a = FF(a, b, c, d, x[0],  S11, 0xd76aa478);	// 1
 177:../freeRTOS750/lib_iinchip/md5.c **** 	d = FF(d, a, b, c, x[1],  S12, 0xe8c7b756); // 2
 178:../freeRTOS750/lib_iinchip/md5.c **** 	c = FF(c, d, a, b, x[2],  S13, 0x242070db); // 3
 179:../freeRTOS750/lib_iinchip/md5.c **** 	b = FF(b, c, d, a, x[3],  S14, 0xc1bdceee); // 4
 180:../freeRTOS750/lib_iinchip/md5.c **** 	a = FF(a, b, c, d, x[4],  S11, 0xf57c0faf); // 5
 181:../freeRTOS750/lib_iinchip/md5.c **** 	d = FF(d, a, b, c, x[5],  S12, 0x4787c62a); // 6
 182:../freeRTOS750/lib_iinchip/md5.c **** 	c = FF(c, d, a, b, x[6],  S13, 0xa8304613); // 7
 183:../freeRTOS750/lib_iinchip/md5.c **** 	b = FF(b, c, d, a, x[7],  S14, 0xfd469501); // 8
 184:../freeRTOS750/lib_iinchip/md5.c **** 	a = FF(a, b, c, d, x[8],  S11, 0x698098d8); // 9
 185:../freeRTOS750/lib_iinchip/md5.c **** 	d = FF(d, a, b, c, x[9],  S12, 0x8b44f7af); // 10
 186:../freeRTOS750/lib_iinchip/md5.c **** 	c = FF(c, d, a, b, x[10], S13, 0xffff5bb1); // 11
 187:../freeRTOS750/lib_iinchip/md5.c **** 	b = FF(b, c, d, a, x[11], S14, 0x895cd7be); // 12
 188:../freeRTOS750/lib_iinchip/md5.c **** 	a = FF(a, b, c, d, x[12], S11, 0x6b901122); // 13
 189:../freeRTOS750/lib_iinchip/md5.c **** 	d = FF(d, a, b, c, x[13], S12, 0xfd987193); // 14
 190:../freeRTOS750/lib_iinchip/md5.c **** 	c = FF(c, d, a, b, x[14], S13, 0xa679438e); // 15
 191:../freeRTOS750/lib_iinchip/md5.c **** 	b = FF(b, c, d, a, x[15], S14, 0x49b40821); // 16
 192:../freeRTOS750/lib_iinchip/md5.c **** 
 193:../freeRTOS750/lib_iinchip/md5.c **** 	// Round 2
 194:../freeRTOS750/lib_iinchip/md5.c **** 	a = GG(a, b, c, d, x[1],  S21, 0xf61e2562); // 17
 195:../freeRTOS750/lib_iinchip/md5.c **** 	d = GG(d, a, b, c, x[6],  S22, 0xc040b340); // 18
 196:../freeRTOS750/lib_iinchip/md5.c **** 	c = GG(c, d, a, b, x[11], S23, 0x265e5a51); // 19
 197:../freeRTOS750/lib_iinchip/md5.c **** 	b = GG(b, c, d, a, x[0],  S24, 0xe9b6c7aa); // 20
 198:../freeRTOS750/lib_iinchip/md5.c **** 	a = GG(a, b, c, d, x[5],  S21, 0xd62f105d); // 21
 199:../freeRTOS750/lib_iinchip/md5.c **** 	d = GG(d, a, b, c, x[10], S22, 0x2441453);  // 22
 200:../freeRTOS750/lib_iinchip/md5.c **** 	c = GG(c, d, a, b, x[15], S23, 0xd8a1e681); // 23
 201:../freeRTOS750/lib_iinchip/md5.c **** 	b = GG(b, c, d, a, x[4],  S24, 0xe7d3fbc8); // 24
 202:../freeRTOS750/lib_iinchip/md5.c **** 	a = GG(a, b, c, d, x[9],  S21, 0x21e1cde6); // 25
 203:../freeRTOS750/lib_iinchip/md5.c **** 	d = GG(d, a, b, c, x[14], S22, 0xc33707d6); // 26
 204:../freeRTOS750/lib_iinchip/md5.c **** 	c = GG(c, d, a, b, x[3],  S23, 0xf4d50d87); // 27
 205:../freeRTOS750/lib_iinchip/md5.c **** 	b = GG(b, c, d, a, x[8],  S24, 0x455a14ed); // 28
 206:../freeRTOS750/lib_iinchip/md5.c **** 	a = GG(a, b, c, d, x[13], S21, 0xa9e3e905); // 29
 207:../freeRTOS750/lib_iinchip/md5.c **** 	d = GG(d, a, b, c, x[2],  S22, 0xfcefa3f8); // 30
 208:../freeRTOS750/lib_iinchip/md5.c **** 	c = GG(c, d, a, b, x[7],  S23, 0x676f02d9); // 31
 209:../freeRTOS750/lib_iinchip/md5.c **** 	b = GG(b, c, d, a, x[12], S24, 0x8d2a4c8a); // 32
 210:../freeRTOS750/lib_iinchip/md5.c **** 
 211:../freeRTOS750/lib_iinchip/md5.c **** 	// Round 3
 212:../freeRTOS750/lib_iinchip/md5.c **** 	a = HH(a, b, c, d, x[5],  S31, 0xfffa3942); // 33
 213:../freeRTOS750/lib_iinchip/md5.c **** 	d = HH(d, a, b, c, x[8],  S32, 0x8771f681); // 34
 214:../freeRTOS750/lib_iinchip/md5.c **** 	c = HH(c, d, a, b, x[11], S33, 0x6d9d6122); // 35
 215:../freeRTOS750/lib_iinchip/md5.c **** 	b = HH(b, c, d, a, x[14], S34, 0xfde5380c); // 36
 216:../freeRTOS750/lib_iinchip/md5.c **** 	a = HH(a, b, c, d, x[1],  S31, 0xa4beea44); // 37
 217:../freeRTOS750/lib_iinchip/md5.c **** 	d = HH(d, a, b, c, x[4],  S32, 0x4bdecfa9); // 38
 218:../freeRTOS750/lib_iinchip/md5.c **** 	c = HH(c, d, a, b, x[7],  S33, 0xf6bb4b60); // 39
 219:../freeRTOS750/lib_iinchip/md5.c **** 	b = HH(b, c, d, a, x[10], S34, 0xbebfbc70); // 40
 220:../freeRTOS750/lib_iinchip/md5.c **** 	a = HH(a, b, c, d, x[13], S31, 0x289b7ec6); // 41
 221:../freeRTOS750/lib_iinchip/md5.c **** 	d = HH(d, a, b, c, x[0],  S32, 0xeaa127fa); // 42
 222:../freeRTOS750/lib_iinchip/md5.c **** 	c = HH(c, d, a, b, x[3],  S33, 0xd4ef3085); // 43
 223:../freeRTOS750/lib_iinchip/md5.c **** 	b = HH(b, c, d, a, x[6],  S34, 0x4881d05);  // 44
 224:../freeRTOS750/lib_iinchip/md5.c **** 	a = HH(a, b, c, d, x[9],  S31, 0xd9d4d039); // 45
 225:../freeRTOS750/lib_iinchip/md5.c **** 	d = HH(d, a, b, c, x[12], S32, 0xe6db99e5); // 46
 226:../freeRTOS750/lib_iinchip/md5.c **** 	c = HH(c, d, a, b, x[15], S33, 0x1fa27cf8); // 47
 227:../freeRTOS750/lib_iinchip/md5.c **** 	b = HH(b, c, d, a, x[2],  S34, 0xc4ac5665); // 48
 228:../freeRTOS750/lib_iinchip/md5.c **** 
 229:../freeRTOS750/lib_iinchip/md5.c **** 	// Round 4
 230:../freeRTOS750/lib_iinchip/md5.c **** 	a = II(a, b, c, d, x[0],  S41, 0xf4292244); // 49
 231:../freeRTOS750/lib_iinchip/md5.c **** 	d = II(d, a, b, c, x[7],  S42, 0x432aff97); // 50
 232:../freeRTOS750/lib_iinchip/md5.c **** 	c = II(c, d, a, b, x[14], S43, 0xab9423a7); // 51
 233:../freeRTOS750/lib_iinchip/md5.c **** 	b = II(b, c, d, a, x[5],  S44, 0xfc93a039); // 52
 234:../freeRTOS750/lib_iinchip/md5.c **** 	a = II(a, b, c, d, x[12], S41, 0x655b59c3); // 53
 235:../freeRTOS750/lib_iinchip/md5.c **** 	d = II(d, a, b, c, x[3],  S42, 0x8f0ccc92); // 54
 236:../freeRTOS750/lib_iinchip/md5.c **** 	c = II(c, d, a, b, x[10], S43, 0xffeff47d); // 55
 237:../freeRTOS750/lib_iinchip/md5.c **** 	b = II(b, c, d, a, x[1],  S44, 0x85845dd1); // 56
 238:../freeRTOS750/lib_iinchip/md5.c **** 	a = II(a, b, c, d, x[8],  S41, 0x6fa87e4f); // 57
 239:../freeRTOS750/lib_iinchip/md5.c **** 	d = II(d, a, b, c, x[15], S42, 0xfe2ce6e0); // 58
 240:../freeRTOS750/lib_iinchip/md5.c **** 	c = II(c, d, a, b, x[6],  S43, 0xa3014314); // 59
 241:../freeRTOS750/lib_iinchip/md5.c **** 	b = II(b, c, d, a, x[13], S44, 0x4e0811a1); // 60
 242:../freeRTOS750/lib_iinchip/md5.c **** 	a = II(a, b, c, d, x[4],  S41, 0xf7537e82); // 61
 243:../freeRTOS750/lib_iinchip/md5.c **** 	d = II(d, a, b, c, x[11], S42, 0xbd3af235); // 62
 244:../freeRTOS750/lib_iinchip/md5.c **** 	c = II(c, d, a, b, x[2],  S43, 0x2ad7d2bb); // 63
 245:../freeRTOS750/lib_iinchip/md5.c **** 	b = II(b, c, d, a, x[9],  S44, 0xeb86d391); // 64
 246:../freeRTOS750/lib_iinchip/md5.c **** 
 247:../freeRTOS750/lib_iinchip/md5.c **** 	state[0] += a;
 248:../freeRTOS750/lib_iinchip/md5.c **** 	state[1] += b;
 249:../freeRTOS750/lib_iinchip/md5.c **** 	state[2] += c;
 250:../freeRTOS750/lib_iinchip/md5.c **** 	state[3] += d;
 251:../freeRTOS750/lib_iinchip/md5.c **** 
 252:../freeRTOS750/lib_iinchip/md5.c **** 	// Zero sensitive information.
 253:../freeRTOS750/lib_iinchip/md5.c **** 	memset(&x,0,sizeof(x));
 254:../freeRTOS750/lib_iinchip/md5.c **** }
 255:../freeRTOS750/lib_iinchip/md5.c **** 
 256:../freeRTOS750/lib_iinchip/md5.c **** /**
 257:../freeRTOS750/lib_iinchip/md5.c ****  @brief	Encodes input (uint32_t) into output (uint8_t). Assumes len is a multiple of 4.
 258:../freeRTOS750/lib_iinchip/md5.c ****  */
 259:../freeRTOS750/lib_iinchip/md5.c **** static void md5_encode(uint8_t *output, uint32_t *input, uint32_t len)
 260:../freeRTOS750/lib_iinchip/md5.c **** {
  85               	.LM0:
  86               	.LFBB1:
  87 0000 8F92      		push r8
  88 0002 9F92      		push r9
  89 0004 AF92      		push r10
  90 0006 BF92      		push r11
  91 0008 CF92      		push r12
  92 000a DF92      		push r13
  93 000c EF92      		push r14
  94 000e FF92      		push r15
  95               	/* prologue: function */
  96               	/* frame size = 0 */
  97               	/* stack size = 8 */
  98               	.L__stack_usage = 8
  99 0010 FB01      		movw r30,r22
 261:../freeRTOS750/lib_iinchip/md5.c **** 	uint32_t i, j;
 262:../freeRTOS750/lib_iinchip/md5.c **** 
 263:../freeRTOS750/lib_iinchip/md5.c **** 	for (i = 0, j = 0; j < len; i++, j += 4)
 101               	.LM1:
 102 0012 812C      		mov r8,__zero_reg__
 103 0014 912C      		mov r9,__zero_reg__
 104 0016 5401      		movw r10,r8
 105 0018 00C0      		rjmp .L2
 106               	.L3:
 259:../freeRTOS750/lib_iinchip/md5.c **** static void md5_encode(uint8_t *output, uint32_t *input, uint32_t len)
 108               	.LM2:
 109 001a DC01      		movw r26,r24
 110 001c A80D      		add r26,r8
 111 001e B91D      		adc r27,r9
 264:../freeRTOS750/lib_iinchip/md5.c **** 	{
 265:../freeRTOS750/lib_iinchip/md5.c **** 		output[j]     = (uint8_t)(input[i] & 0xff);
 113               	.LM3:
 114 0020 F080      		ld r15,Z
 115 0022 FC92      		st X,r15
 266:../freeRTOS750/lib_iinchip/md5.c **** 		output[j + 1] = (uint8_t)((input[i] >> 8) & 0xff);
 117               	.LM4:
 118 0024 F180      		ldd r15,Z+1
 119 0026 1196      		adiw r26,1
 120 0028 FC92      		st X,r15
 121 002a 1197      		sbiw r26,1
 267:../freeRTOS750/lib_iinchip/md5.c **** 		output[j + 2] = (uint8_t)((input[i] >> 16) & 0xff);
 123               	.LM5:
 124 002c F280      		ldd r15,Z+2
 125 002e 1296      		adiw r26,2
 126 0030 FC92      		st X,r15
 127 0032 1297      		sbiw r26,2
 268:../freeRTOS750/lib_iinchip/md5.c **** 		output[j + 3] = (uint8_t)((input[i] >> 24) & 0xff);
 129               	.LM6:
 130 0034 C190      		ld r12,Z+
 131 0036 D190      		ld r13,Z+
 132 0038 E190      		ld r14,Z+
 133 003a F190      		ld r15,Z+
 134 003c 1396      		adiw r26,3
 135 003e FC92      		st X,r15
 263:../freeRTOS750/lib_iinchip/md5.c **** 	for (i = 0, j = 0; j < len; i++, j += 4)
 137               	.LM7:
 138 0040 64E0      		ldi r22,4
 139 0042 860E      		add r8,r22
 140 0044 911C      		adc r9,__zero_reg__
 141 0046 A11C      		adc r10,__zero_reg__
 142 0048 B11C      		adc r11,__zero_reg__
 143               	.L2:
 263:../freeRTOS750/lib_iinchip/md5.c **** 	for (i = 0, j = 0; j < len; i++, j += 4)
 145               	.LM8:
 146 004a 8216      		cp r8,r18
 147 004c 9306      		cpc r9,r19
 148 004e A406      		cpc r10,r20
 149 0050 B506      		cpc r11,r21
 150 0052 00F0      		brlo .L3
 151               	/* epilogue start */
 269:../freeRTOS750/lib_iinchip/md5.c **** 	}
 270:../freeRTOS750/lib_iinchip/md5.c **** }
 153               	.LM9:
 154 0054 FF90      		pop r15
 155 0056 EF90      		pop r14
 156 0058 DF90      		pop r13
 157 005a CF90      		pop r12
 158 005c BF90      		pop r11
 159 005e AF90      		pop r10
 160 0060 9F90      		pop r9
 161 0062 8F90      		pop r8
 162 0064 0895      		ret
 167               	.Lscope1:
 169               		.stabd	78,0,0
 178               	.global	FF
 180               	FF:
 181               		.stabd	46,0,0
  57:../freeRTOS750/lib_iinchip/md5.c **** 	{
 183               	.LM10:
 184               	.LFBB2:
 185 0066 4F92      		push r4
 186 0068 5F92      		push r5
 187 006a 6F92      		push r6
 188 006c 7F92      		push r7
 189 006e 8F92      		push r8
 190 0070 9F92      		push r9
 191 0072 AF92      		push r10
 192 0074 BF92      		push r11
 193 0076 CF92      		push r12
 194 0078 DF92      		push r13
 195 007a EF92      		push r14
 196 007c FF92      		push r15
 197 007e 0F93      		push r16
 198 0080 1F93      		push r17
 199 0082 CF93      		push r28
 200 0084 DF93      		push r29
 201 0086 CDB7      		in r28,__SP_L__
 202 0088 DEB7      		in r29,__SP_H__
 203               	/* prologue: function */
 204               	/* frame size = 0 */
 205               	/* stack size = 16 */
 206               	.L__stack_usage = 16
  58:../freeRTOS750/lib_iinchip/md5.c **** 		a += F (b, c, d) + x + (uint32_t)(ac);
 208               	.LM11:
 209 008a 6B88      		ldd r6,Y+19
 210 008c 7C88      		ldd r7,Y+20
 211 008e 8D88      		ldd r8,Y+21
 212 0090 9E88      		ldd r9,Y+22
 213 0092 660E      		add r6,r22
 214 0094 771E      		adc r7,r23
 215 0096 881E      		adc r8,r24
 216 0098 991E      		adc r9,r25
 217 009a DA01      		movw r26,r20
 218 009c C901      		movw r24,r18
 219 009e 8095      		com r24
 220 00a0 9095      		com r25
 221 00a2 A095      		com r26
 222 00a4 B095      		com r27
 223 00a6 A822      		and r10,r24
 224 00a8 B922      		and r11,r25
 225 00aa CA22      		and r12,r26
 226 00ac DB22      		and r13,r27
 227 00ae E222      		and r14,r18
 228 00b0 F322      		and r15,r19
 229 00b2 0423      		and r16,r20
 230 00b4 1523      		and r17,r21
 231 00b6 AE28      		or r10,r14
 232 00b8 BF28      		or r11,r15
 233 00ba C02A      		or r12,r16
 234 00bc D12A      		or r13,r17
 235 00be 6A0C      		add r6,r10
 236 00c0 7B1C      		adc r7,r11
 237 00c2 8C1C      		adc r8,r12
 238 00c4 9D1C      		adc r9,r13
 239 00c6 8B8D      		ldd r24,Y+27
 240 00c8 9C8D      		ldd r25,Y+28
 241 00ca AD8D      		ldd r26,Y+29
 242 00cc BE8D      		ldd r27,Y+30
 243 00ce 680E      		add r6,r24
 244 00d0 791E      		adc r7,r25
 245 00d2 8A1E      		adc r8,r26
 246 00d4 9B1E      		adc r9,r27
 247 00d6 6B8A      		std Y+19,r6
 248 00d8 7C8A      		std Y+20,r7
 249 00da 8D8A      		std Y+21,r8
 250 00dc 9E8A      		std Y+22,r9
  59:../freeRTOS750/lib_iinchip/md5.c **** 		a = ROTATE_LEFT (a, s);
 252               	.LM12:
 253 00de D401      		movw r26,r8
 254 00e0 C301      		movw r24,r6
 255 00e2 0F88      		ldd r0,Y+23
 256 00e4 00C0      		rjmp 2f
 257               		1:
 258 00e6 880F      		lsl r24
 259 00e8 991F      		rol r25
 260 00ea AA1F      		rol r26
 261 00ec BB1F      		rol r27
 262               		2:
 263 00ee 0A94      		dec r0
 264 00f0 02F4      		brpl 1b
 265 00f2 00E2      		ldi r16,lo8(32)
 266 00f4 10E0      		ldi r17,0
 267 00f6 8F88      		ldd r8,Y+23
 268 00f8 988C      		ldd r9,Y+24
 269 00fa 0819      		sub r16,r8
 270 00fc 1909      		sbc r17,r9
 271 00fe CB88      		ldd r12,Y+19
 272 0100 DC88      		ldd r13,Y+20
 273 0102 ED88      		ldd r14,Y+21
 274 0104 FE88      		ldd r15,Y+22
 275 0106 00C0      		rjmp 2f
 276               		1:
 277 0108 F694      		lsr r15
 278 010a E794      		ror r14
 279 010c D794      		ror r13
 280 010e C794      		ror r12
 281               		2:
 282 0110 0A95      		dec r16
 283 0112 02F4      		brpl 1b
 284 0114 C82A      		or r12,r24
 285 0116 D92A      		or r13,r25
 286 0118 EA2A      		or r14,r26
 287 011a FB2A      		or r15,r27
  60:../freeRTOS750/lib_iinchip/md5.c **** 		a += b;
 289               	.LM13:
 290 011c C20E      		add r12,r18
 291 011e D31E      		adc r13,r19
 292 0120 E41E      		adc r14,r20
 293 0122 F51E      		adc r15,r21
  62:../freeRTOS750/lib_iinchip/md5.c **** 	}
 295               	.LM14:
 296 0124 B601      		movw r22,r12
 297 0126 C701      		movw r24,r14
 298               	/* epilogue start */
 299 0128 DF91      		pop r29
 300 012a CF91      		pop r28
 301 012c 1F91      		pop r17
 302 012e 0F91      		pop r16
 303 0130 FF90      		pop r15
 304 0132 EF90      		pop r14
 305 0134 DF90      		pop r13
 306 0136 CF90      		pop r12
 307 0138 BF90      		pop r11
 308 013a AF90      		pop r10
 309 013c 9F90      		pop r9
 310 013e 8F90      		pop r8
 311 0140 7F90      		pop r7
 312 0142 6F90      		pop r6
 313 0144 5F90      		pop r5
 314 0146 4F90      		pop r4
 315 0148 0895      		ret
 318               	.Lscope2:
 320               		.stabd	78,0,0
 329               	.global	GG
 331               	GG:
 332               		.stabd	46,0,0
  64:../freeRTOS750/lib_iinchip/md5.c **** 	{
 334               	.LM15:
 335               	.LFBB3:
 336 014a 4F92      		push r4
 337 014c 5F92      		push r5
 338 014e 6F92      		push r6
 339 0150 7F92      		push r7
 340 0152 8F92      		push r8
 341 0154 9F92      		push r9
 342 0156 AF92      		push r10
 343 0158 BF92      		push r11
 344 015a CF92      		push r12
 345 015c DF92      		push r13
 346 015e EF92      		push r14
 347 0160 FF92      		push r15
 348 0162 0F93      		push r16
 349 0164 1F93      		push r17
 350 0166 CF93      		push r28
 351 0168 DF93      		push r29
 352 016a CDB7      		in r28,__SP_L__
 353 016c DEB7      		in r29,__SP_H__
 354               	/* prologue: function */
 355               	/* frame size = 0 */
 356               	/* stack size = 16 */
 357               	.L__stack_usage = 16
  65:../freeRTOS750/lib_iinchip/md5.c **** 		a += G (b, c, d) + x + (uint32_t)(ac);
 359               	.LM16:
 360 016e 6B88      		ldd r6,Y+19
 361 0170 7C88      		ldd r7,Y+20
 362 0172 8D88      		ldd r8,Y+21
 363 0174 9E88      		ldd r9,Y+22
 364 0176 660E      		add r6,r22
 365 0178 771E      		adc r7,r23
 366 017a 881E      		adc r8,r24
 367 017c 991E      		adc r9,r25
 368 017e D601      		movw r26,r12
 369 0180 C501      		movw r24,r10
 370 0182 8095      		com r24
 371 0184 9095      		com r25
 372 0186 A095      		com r26
 373 0188 B095      		com r27
 374 018a 8E21      		and r24,r14
 375 018c 9F21      		and r25,r15
 376 018e A023      		and r26,r16
 377 0190 B123      		and r27,r17
 378 0192 7601      		movw r14,r12
 379 0194 6501      		movw r12,r10
 380 0196 C222      		and r12,r18
 381 0198 D322      		and r13,r19
 382 019a E422      		and r14,r20
 383 019c F522      		and r15,r21
 384 019e 8C29      		or r24,r12
 385 01a0 9D29      		or r25,r13
 386 01a2 AE29      		or r26,r14
 387 01a4 BF29      		or r27,r15
 388 01a6 680E      		add r6,r24
 389 01a8 791E      		adc r7,r25
 390 01aa 8A1E      		adc r8,r26
 391 01ac 9B1E      		adc r9,r27
 392 01ae 8B8D      		ldd r24,Y+27
 393 01b0 9C8D      		ldd r25,Y+28
 394 01b2 AD8D      		ldd r26,Y+29
 395 01b4 BE8D      		ldd r27,Y+30
 396 01b6 680E      		add r6,r24
 397 01b8 791E      		adc r7,r25
 398 01ba 8A1E      		adc r8,r26
 399 01bc 9B1E      		adc r9,r27
 400 01be 6B8A      		std Y+19,r6
 401 01c0 7C8A      		std Y+20,r7
 402 01c2 8D8A      		std Y+21,r8
 403 01c4 9E8A      		std Y+22,r9
  66:../freeRTOS750/lib_iinchip/md5.c **** 		a = ROTATE_LEFT (a, s);
 405               	.LM17:
 406 01c6 D401      		movw r26,r8
 407 01c8 C301      		movw r24,r6
 408 01ca 0F88      		ldd r0,Y+23
 409 01cc 00C0      		rjmp 2f
 410               		1:
 411 01ce 880F      		lsl r24
 412 01d0 991F      		rol r25
 413 01d2 AA1F      		rol r26
 414 01d4 BB1F      		rol r27
 415               		2:
 416 01d6 0A94      		dec r0
 417 01d8 02F4      		brpl 1b
 418 01da 00E2      		ldi r16,lo8(32)
 419 01dc 10E0      		ldi r17,0
 420 01de 8F88      		ldd r8,Y+23
 421 01e0 988C      		ldd r9,Y+24
 422 01e2 0819      		sub r16,r8
 423 01e4 1909      		sbc r17,r9
 424 01e6 CB88      		ldd r12,Y+19
 425 01e8 DC88      		ldd r13,Y+20
 426 01ea ED88      		ldd r14,Y+21
 427 01ec FE88      		ldd r15,Y+22
 428 01ee 00C0      		rjmp 2f
 429               		1:
 430 01f0 F694      		lsr r15
 431 01f2 E794      		ror r14
 432 01f4 D794      		ror r13
 433 01f6 C794      		ror r12
 434               		2:
 435 01f8 0A95      		dec r16
 436 01fa 02F4      		brpl 1b
 437 01fc C82A      		or r12,r24
 438 01fe D92A      		or r13,r25
 439 0200 EA2A      		or r14,r26
 440 0202 FB2A      		or r15,r27
  67:../freeRTOS750/lib_iinchip/md5.c **** 		a += b;
 442               	.LM18:
 443 0204 C20E      		add r12,r18
 444 0206 D31E      		adc r13,r19
 445 0208 E41E      		adc r14,r20
 446 020a F51E      		adc r15,r21
  69:../freeRTOS750/lib_iinchip/md5.c **** 	}
 448               	.LM19:
 449 020c B601      		movw r22,r12
 450 020e C701      		movw r24,r14
 451               	/* epilogue start */
 452 0210 DF91      		pop r29
 453 0212 CF91      		pop r28
 454 0214 1F91      		pop r17
 455 0216 0F91      		pop r16
 456 0218 FF90      		pop r15
 457 021a EF90      		pop r14
 458 021c DF90      		pop r13
 459 021e CF90      		pop r12
 460 0220 BF90      		pop r11
 461 0222 AF90      		pop r10
 462 0224 9F90      		pop r9
 463 0226 8F90      		pop r8
 464 0228 7F90      		pop r7
 465 022a 6F90      		pop r6
 466 022c 5F90      		pop r5
 467 022e 4F90      		pop r4
 468 0230 0895      		ret
 471               	.Lscope3:
 473               		.stabd	78,0,0
 482               	.global	HH
 484               	HH:
 485               		.stabd	46,0,0
  72:../freeRTOS750/lib_iinchip/md5.c **** 	{
 487               	.LM20:
 488               	.LFBB4:
 489 0232 4F92      		push r4
 490 0234 5F92      		push r5
 491 0236 6F92      		push r6
 492 0238 7F92      		push r7
 493 023a 8F92      		push r8
 494 023c 9F92      		push r9
 495 023e AF92      		push r10
 496 0240 BF92      		push r11
 497 0242 CF92      		push r12
 498 0244 DF92      		push r13
 499 0246 EF92      		push r14
 500 0248 FF92      		push r15
 501 024a 0F93      		push r16
 502 024c 1F93      		push r17
 503 024e CF93      		push r28
 504 0250 DF93      		push r29
 505 0252 CDB7      		in r28,__SP_L__
 506 0254 DEB7      		in r29,__SP_H__
 507               	/* prologue: function */
 508               	/* frame size = 0 */
 509               	/* stack size = 16 */
 510               	.L__stack_usage = 16
  73:../freeRTOS750/lib_iinchip/md5.c **** 		a += H (b, c, d) + x + (uint32_t)(ac);
 512               	.LM21:
 513 0256 E226      		eor r14,r18
 514 0258 F326      		eor r15,r19
 515 025a 0427      		eor r16,r20
 516 025c 1527      		eor r17,r21
 517 025e EA24      		eor r14,r10
 518 0260 FB24      		eor r15,r11
 519 0262 0C25      		eor r16,r12
 520 0264 1D25      		eor r17,r13
 521 0266 4B88      		ldd r4,Y+19
 522 0268 5C88      		ldd r5,Y+20
 523 026a 6D88      		ldd r6,Y+21
 524 026c 7E88      		ldd r7,Y+22
 525 026e E40C      		add r14,r4
 526 0270 F51C      		adc r15,r5
 527 0272 061D      		adc r16,r6
 528 0274 171D      		adc r17,r7
 529 0276 E60E      		add r14,r22
 530 0278 F71E      		adc r15,r23
 531 027a 081F      		adc r16,r24
 532 027c 191F      		adc r17,r25
 533 027e 8B8D      		ldd r24,Y+27
 534 0280 9C8D      		ldd r25,Y+28
 535 0282 AD8D      		ldd r26,Y+29
 536 0284 BE8D      		ldd r27,Y+30
 537 0286 E80E      		add r14,r24
 538 0288 F91E      		adc r15,r25
 539 028a 0A1F      		adc r16,r26
 540 028c 1B1F      		adc r17,r27
  74:../freeRTOS750/lib_iinchip/md5.c **** 		a = ROTATE_LEFT (a, s);
 542               	.LM22:
 543 028e D801      		movw r26,r16
 544 0290 C701      		movw r24,r14
 545 0292 0F88      		ldd r0,Y+23
 546 0294 00C0      		rjmp 2f
 547               		1:
 548 0296 880F      		lsl r24
 549 0298 991F      		rol r25
 550 029a AA1F      		rol r26
 551 029c BB1F      		rol r27
 552               		2:
 553 029e 0A94      		dec r0
 554 02a0 02F4      		brpl 1b
 555 02a2 60E2      		ldi r22,lo8(32)
 556 02a4 70E0      		ldi r23,0
 557 02a6 6F88      		ldd r6,Y+23
 558 02a8 788C      		ldd r7,Y+24
 559 02aa 6619      		sub r22,r6
 560 02ac 7709      		sbc r23,r7
 561 02ae 6701      		movw r12,r14
 562 02b0 7801      		movw r14,r16
 563 02b2 00C0      		rjmp 2f
 564               		1:
 565 02b4 F694      		lsr r15
 566 02b6 E794      		ror r14
 567 02b8 D794      		ror r13
 568 02ba C794      		ror r12
 569               		2:
 570 02bc 6A95      		dec r22
 571 02be 02F4      		brpl 1b
 572 02c0 C82A      		or r12,r24
 573 02c2 D92A      		or r13,r25
 574 02c4 EA2A      		or r14,r26
 575 02c6 FB2A      		or r15,r27
  75:../freeRTOS750/lib_iinchip/md5.c **** 		a += b;
 577               	.LM23:
 578 02c8 C20E      		add r12,r18
 579 02ca D31E      		adc r13,r19
 580 02cc E41E      		adc r14,r20
 581 02ce F51E      		adc r15,r21
  77:../freeRTOS750/lib_iinchip/md5.c **** 	}
 583               	.LM24:
 584 02d0 B601      		movw r22,r12
 585 02d2 C701      		movw r24,r14
 586               	/* epilogue start */
 587 02d4 DF91      		pop r29
 588 02d6 CF91      		pop r28
 589 02d8 1F91      		pop r17
 590 02da 0F91      		pop r16
 591 02dc FF90      		pop r15
 592 02de EF90      		pop r14
 593 02e0 DF90      		pop r13
 594 02e2 CF90      		pop r12
 595 02e4 BF90      		pop r11
 596 02e6 AF90      		pop r10
 597 02e8 9F90      		pop r9
 598 02ea 8F90      		pop r8
 599 02ec 7F90      		pop r7
 600 02ee 6F90      		pop r6
 601 02f0 5F90      		pop r5
 602 02f2 4F90      		pop r4
 603 02f4 0895      		ret
 607               	.Lscope4:
 609               		.stabd	78,0,0
 618               	.global	II
 620               	II:
 621               		.stabd	46,0,0
  80:../freeRTOS750/lib_iinchip/md5.c **** 	{
 623               	.LM25:
 624               	.LFBB5:
 625 02f6 4F92      		push r4
 626 02f8 5F92      		push r5
 627 02fa 6F92      		push r6
 628 02fc 7F92      		push r7
 629 02fe 8F92      		push r8
 630 0300 9F92      		push r9
 631 0302 AF92      		push r10
 632 0304 BF92      		push r11
 633 0306 CF92      		push r12
 634 0308 DF92      		push r13
 635 030a EF92      		push r14
 636 030c FF92      		push r15
 637 030e 0F93      		push r16
 638 0310 1F93      		push r17
 639 0312 CF93      		push r28
 640 0314 DF93      		push r29
 641 0316 CDB7      		in r28,__SP_L__
 642 0318 DEB7      		in r29,__SP_H__
 643               	/* prologue: function */
 644               	/* frame size = 0 */
 645               	/* stack size = 16 */
 646               	.L__stack_usage = 16
  81:../freeRTOS750/lib_iinchip/md5.c **** 		a += I (b, c, d) + x + (uint32_t)(ac);
 648               	.LM26:
 649 031a 6B88      		ldd r6,Y+19
 650 031c 7C88      		ldd r7,Y+20
 651 031e 8D88      		ldd r8,Y+21
 652 0320 9E88      		ldd r9,Y+22
 653 0322 660E      		add r6,r22
 654 0324 771E      		adc r7,r23
 655 0326 881E      		adc r8,r24
 656 0328 991E      		adc r9,r25
 657 032a A094      		com r10
 658 032c B094      		com r11
 659 032e C094      		com r12
 660 0330 D094      		com r13
 661 0332 A22A      		or r10,r18
 662 0334 B32A      		or r11,r19
 663 0336 C42A      		or r12,r20
 664 0338 D52A      		or r13,r21
 665 033a AE24      		eor r10,r14
 666 033c BF24      		eor r11,r15
 667 033e C026      		eor r12,r16
 668 0340 D126      		eor r13,r17
 669 0342 6A0C      		add r6,r10
 670 0344 7B1C      		adc r7,r11
 671 0346 8C1C      		adc r8,r12
 672 0348 9D1C      		adc r9,r13
 673 034a 8B8D      		ldd r24,Y+27
 674 034c 9C8D      		ldd r25,Y+28
 675 034e AD8D      		ldd r26,Y+29
 676 0350 BE8D      		ldd r27,Y+30
 677 0352 680E      		add r6,r24
 678 0354 791E      		adc r7,r25
 679 0356 8A1E      		adc r8,r26
 680 0358 9B1E      		adc r9,r27
 681 035a 6B8A      		std Y+19,r6
 682 035c 7C8A      		std Y+20,r7
 683 035e 8D8A      		std Y+21,r8
 684 0360 9E8A      		std Y+22,r9
  82:../freeRTOS750/lib_iinchip/md5.c **** 		a = ROTATE_LEFT (a, s);
 686               	.LM27:
 687 0362 D401      		movw r26,r8
 688 0364 C301      		movw r24,r6
 689 0366 0F88      		ldd r0,Y+23
 690 0368 00C0      		rjmp 2f
 691               		1:
 692 036a 880F      		lsl r24
 693 036c 991F      		rol r25
 694 036e AA1F      		rol r26
 695 0370 BB1F      		rol r27
 696               		2:
 697 0372 0A94      		dec r0
 698 0374 02F4      		brpl 1b
 699 0376 00E2      		ldi r16,lo8(32)
 700 0378 10E0      		ldi r17,0
 701 037a 8F88      		ldd r8,Y+23
 702 037c 988C      		ldd r9,Y+24
 703 037e 0819      		sub r16,r8
 704 0380 1909      		sbc r17,r9
 705 0382 CB88      		ldd r12,Y+19
 706 0384 DC88      		ldd r13,Y+20
 707 0386 ED88      		ldd r14,Y+21
 708 0388 FE88      		ldd r15,Y+22
 709 038a 00C0      		rjmp 2f
 710               		1:
 711 038c F694      		lsr r15
 712 038e E794      		ror r14
 713 0390 D794      		ror r13
 714 0392 C794      		ror r12
 715               		2:
 716 0394 0A95      		dec r16
 717 0396 02F4      		brpl 1b
 718 0398 C82A      		or r12,r24
 719 039a D92A      		or r13,r25
 720 039c EA2A      		or r14,r26
 721 039e FB2A      		or r15,r27
  83:../freeRTOS750/lib_iinchip/md5.c **** 		a += b;
 723               	.LM28:
 724 03a0 C20E      		add r12,r18
 725 03a2 D31E      		adc r13,r19
 726 03a4 E41E      		adc r14,r20
 727 03a6 F51E      		adc r15,r21
  85:../freeRTOS750/lib_iinchip/md5.c **** 	}
 729               	.LM29:
 730 03a8 B601      		movw r22,r12
 731 03aa C701      		movw r24,r14
 732               	/* epilogue start */
 733 03ac DF91      		pop r29
 734 03ae CF91      		pop r28
 735 03b0 1F91      		pop r17
 736 03b2 0F91      		pop r16
 737 03b4 FF90      		pop r15
 738 03b6 EF90      		pop r14
 739 03b8 DF90      		pop r13
 740 03ba CF90      		pop r12
 741 03bc BF90      		pop r11
 742 03be AF90      		pop r10
 743 03c0 9F90      		pop r9
 744 03c2 8F90      		pop r8
 745 03c4 7F90      		pop r7
 746 03c6 6F90      		pop r6
 747 03c8 5F90      		pop r5
 748 03ca 4F90      		pop r4
 749 03cc 0895      		ret
 752               	.Lscope5:
 754               		.stabd	78,0,0
 759               	md5_transform:
 760               		.stabd	46,0,0
 166:../freeRTOS750/lib_iinchip/md5.c **** {
 762               	.LM30:
 763               	.LFBB6:
 764 03ce 2F92      		push r2
 765 03d0 3F92      		push r3
 766 03d2 4F92      		push r4
 767 03d4 5F92      		push r5
 768 03d6 6F92      		push r6
 769 03d8 7F92      		push r7
 770 03da 8F92      		push r8
 771 03dc 9F92      		push r9
 772 03de AF92      		push r10
 773 03e0 BF92      		push r11
 774 03e2 CF92      		push r12
 775 03e4 DF92      		push r13
 776 03e6 EF92      		push r14
 777 03e8 FF92      		push r15
 778 03ea 0F93      		push r16
 779 03ec 1F93      		push r17
 780 03ee CF93      		push r28
 781 03f0 DF93      		push r29
 782 03f2 CDB7      		in r28,__SP_L__
 783 03f4 DEB7      		in r29,__SP_H__
 784 03f6 C25A      		subi r28,-94
 785 03f8 D109      		sbc r29,__zero_reg__
 786 03fa 0FB6      		in __tmp_reg__,__SREG__
 787 03fc F894      		cli
 788 03fe DEBF      		out __SP_H__,r29
 789 0400 0FBE      		out __SREG__,__tmp_reg__
 790 0402 CDBF      		out __SP_L__,r28
 791               	/* prologue: function */
 792               	/* frame size = 162 */
 793               	/* stack size = 180 */
 794               	.L__stack_usage = 180
 795 0404 CF56      		subi r28,lo8(-145)
 796 0406 DF4F      		sbci r29,hi8(-145)
 797 0408 9983      		std Y+1,r25
 798 040a 8883      		st Y,r24
 799 040c C159      		subi r28,lo8(145)
 800 040e D040      		sbci r29,hi8(145)
 167:../freeRTOS750/lib_iinchip/md5.c **** 	uint32_t a = state[0];
 802               	.LM31:
 803 0410 DC01      		movw r26,r24
 804 0412 4D90      		ld r4,X+
 805 0414 5D90      		ld r5,X+
 806 0416 6D90      		ld r6,X+
 807 0418 7C90      		ld r7,X
 808 041a 1397      		sbiw r26,3
 809 041c C156      		subi r28,lo8(-159)
 810 041e DF4F      		sbci r29,hi8(-159)
 811 0420 4882      		st Y,r4
 812 0422 5982      		std Y+1,r5
 813 0424 6A82      		std Y+2,r6
 814 0426 7B82      		std Y+3,r7
 815 0428 CF59      		subi r28,lo8(159)
 816 042a D040      		sbci r29,hi8(159)
 168:../freeRTOS750/lib_iinchip/md5.c **** 	uint32_t b = state[1];
 818               	.LM32:
 819 042c 1496      		adiw r26,4
 820 042e 4D90      		ld r4,X+
 821 0430 5D90      		ld r5,X+
 822 0432 6D90      		ld r6,X+
 823 0434 7C90      		ld r7,X
 824 0436 1797      		sbiw r26,4+3
 825 0438 CD56      		subi r28,lo8(-147)
 826 043a DF4F      		sbci r29,hi8(-147)
 827 043c 4882      		st Y,r4
 828 043e 5982      		std Y+1,r5
 829 0440 6A82      		std Y+2,r6
 830 0442 7B82      		std Y+3,r7
 831 0444 C359      		subi r28,lo8(147)
 832 0446 D040      		sbci r29,hi8(147)
 169:../freeRTOS750/lib_iinchip/md5.c **** 	uint32_t c = state[2];
 834               	.LM33:
 835 0448 1896      		adiw r26,8
 836 044a 4D90      		ld r4,X+
 837 044c 5D90      		ld r5,X+
 838 044e 6D90      		ld r6,X+
 839 0450 7C90      		ld r7,X
 840 0452 1B97      		sbiw r26,8+3
 841 0454 C956      		subi r28,lo8(-151)
 842 0456 DF4F      		sbci r29,hi8(-151)
 843 0458 4882      		st Y,r4
 844 045a 5982      		std Y+1,r5
 845 045c 6A82      		std Y+2,r6
 846 045e 7B82      		std Y+3,r7
 847 0460 C759      		subi r28,lo8(151)
 848 0462 D040      		sbci r29,hi8(151)
 170:../freeRTOS750/lib_iinchip/md5.c **** 	uint32_t d = state[3];
 850               	.LM34:
 851 0464 1C96      		adiw r26,12
 852 0466 4D90      		ld r4,X+
 853 0468 5D90      		ld r5,X+
 854 046a 6D90      		ld r6,X+
 855 046c 7C90      		ld r7,X
 856 046e 1F97      		sbiw r26,12+3
 857 0470 C556      		subi r28,lo8(-155)
 858 0472 DF4F      		sbci r29,hi8(-155)
 859 0474 4882      		st Y,r4
 860 0476 5982      		std Y+1,r5
 861 0478 6A82      		std Y+2,r6
 862 047a 7B82      		std Y+3,r7
 863 047c CB59      		subi r28,lo8(155)
 864 047e D040      		sbci r29,hi8(155)
 165:../freeRTOS750/lib_iinchip/md5.c **** static void md5_transform(uint32_t state[4], uint8_t block[64])
 866               	.LM35:
 867 0480 6D5F      		subi r22,-3
 868 0482 7F4F      		sbci r23,-1
 869 0484 8E01      		movw r16,r28
 870 0486 0F5F      		subi r16,-1
 871 0488 1F4F      		sbci r17,-1
 872 048a 9E01      		movw r18,r28
 873 048c 2F5B      		subi r18,-65
 874 048e 3F4F      		sbci r19,-1
 875               	.L9:
 876               	.LBB36:
 877               	.LBB37:
 271:../freeRTOS750/lib_iinchip/md5.c **** 
 272:../freeRTOS750/lib_iinchip/md5.c **** /**
 273:../freeRTOS750/lib_iinchip/md5.c ****  @brief Decodes input (uint8_t) into output (uint32_t). Assumes len is a multiple of 4.
 274:../freeRTOS750/lib_iinchip/md5.c ****  */
 275:../freeRTOS750/lib_iinchip/md5.c **** static void md5_decode(uint32_t *output, uint8_t *input, uint32_t len)
 276:../freeRTOS750/lib_iinchip/md5.c **** {
 277:../freeRTOS750/lib_iinchip/md5.c **** 	uint32_t i, j;
 278:../freeRTOS750/lib_iinchip/md5.c **** 	for (i = 0, j = 0; j < len; i++, j += 4)
 279:../freeRTOS750/lib_iinchip/md5.c **** 		output[i] = ((uint32_t) input[j]) | (((uint32_t) input[j + 1]) << 8) |
 280:../freeRTOS750/lib_iinchip/md5.c **** 				(((uint32_t)input[j + 2]) << 16) | (((uint32_t)input[j + 3]) << 24);
 879               	.LM36:
 880 0490 FB01      		movw r30,r22
 881 0492 8081      		ld r24,Z
 882 0494 90E0      		ldi r25,0
 883 0496 A0E0      		ldi r26,0
 884 0498 B0E0      		ldi r27,0
 885 049a B82F      		mov r27,r24
 886 049c AA27      		clr r26
 887 049e 9927      		clr r25
 888 04a0 8827      		clr r24
 165:../freeRTOS750/lib_iinchip/md5.c **** static void md5_transform(uint32_t state[4], uint8_t block[64])
 890               	.LM37:
 891 04a2 AB01      		movw r20,r22
 892 04a4 4350      		subi r20,3
 893 04a6 5109      		sbc r21,__zero_reg__
 279:../freeRTOS750/lib_iinchip/md5.c **** 		output[i] = ((uint32_t) input[j]) | (((uint32_t) input[j + 1]) << 8) |
 895               	.LM38:
 896 04a8 FA01      		movw r30,r20
 897 04aa 4081      		ld r20,Z
 898 04ac 842B      		or r24,r20
 165:../freeRTOS750/lib_iinchip/md5.c **** static void md5_transform(uint32_t state[4], uint8_t block[64])
 900               	.LM39:
 901 04ae AB01      		movw r20,r22
 902 04b0 4250      		subi r20,2
 903 04b2 5109      		sbc r21,__zero_reg__
 279:../freeRTOS750/lib_iinchip/md5.c **** 		output[i] = ((uint32_t) input[j]) | (((uint32_t) input[j + 1]) << 8) |
 905               	.LM40:
 906 04b4 FA01      		movw r30,r20
 907 04b6 4081      		ld r20,Z
 908 04b8 942B      		or r25,r20
 165:../freeRTOS750/lib_iinchip/md5.c **** static void md5_transform(uint32_t state[4], uint8_t block[64])
 910               	.LM41:
 911 04ba AB01      		movw r20,r22
 912 04bc 4150      		subi r20,1
 913 04be 5109      		sbc r21,__zero_reg__
 915               	.LM42:
 916 04c0 FA01      		movw r30,r20
 917 04c2 4081      		ld r20,Z
 918 04c4 A42B      		or r26,r20
 279:../freeRTOS750/lib_iinchip/md5.c **** 		output[i] = ((uint32_t) input[j]) | (((uint32_t) input[j + 1]) << 8) |
 920               	.LM43:
 921 04c6 F801      		movw r30,r16
 922 04c8 8193      		st Z+,r24
 923 04ca 9193      		st Z+,r25
 924 04cc A193      		st Z+,r26
 925 04ce B193      		st Z+,r27
 926 04d0 8F01      		movw r16,r30
 927 04d2 6C5F      		subi r22,-4
 928 04d4 7F4F      		sbci r23,-1
 278:../freeRTOS750/lib_iinchip/md5.c **** 	for (i = 0, j = 0; j < len; i++, j += 4)
 930               	.LM44:
 931 04d6 E217      		cp r30,r18
 932 04d8 F307      		cpc r31,r19
 933 04da 01F4      		brne .L9
 934               	.LBE37:
 935               	.LBE36:
 176:../freeRTOS750/lib_iinchip/md5.c **** 	a = FF(a, b, c, d, x[0],  S11, 0xd76aa478);	// 1
 937               	.LM45:
 938 04dc 4980      		ldd r4,Y+1
 939 04de 5A80      		ldd r5,Y+2
 940 04e0 6B80      		ldd r6,Y+3
 941 04e2 7C80      		ldd r7,Y+4
 942 04e4 2996      		adiw r28,69-60
 943 04e6 4CAE      		std Y+60,r4
 944 04e8 5DAE      		std Y+61,r5
 945 04ea 6EAE      		std Y+62,r6
 946 04ec 7FAE      		std Y+63,r7
 947 04ee 2997      		sbiw r28,69-60
 948 04f0 87ED      		ldi r24,lo8(-41)
 949 04f2 582E      		mov r5,r24
 950 04f4 5F92      		push r5
 951 04f6 8AE6      		ldi r24,lo8(106)
 952 04f8 8F93      		push r24
 953 04fa 84EA      		ldi r24,lo8(-92)
 954 04fc 8F93      		push r24
 955 04fe 88E7      		ldi r24,lo8(120)
 956 0500 8F93      		push r24
 957 0502 1F92      		push __zero_reg__
 958 0504 1F92      		push __zero_reg__
 959 0506 1F92      		push __zero_reg__
 960 0508 97E0      		ldi r25,lo8(7)
 961 050a 892E      		mov r8,r25
 962 050c 8F92      		push r8
 963 050e 7F92      		push r7
 964 0510 6F92      		push r6
 965 0512 2796      		adiw r28,70-63
 966 0514 6FAC      		ldd r6,Y+63
 967 0516 2797      		sbiw r28,70-63
 968 0518 6F92      		push r6
 969 051a 4F92      		push r4
 970 051c C556      		subi r28,lo8(-155)
 971 051e DF4F      		sbci r29,hi8(-155)
 972 0520 A880      		ld r10,Y
 973 0522 B980      		ldd r11,Y+1
 974 0524 CA80      		ldd r12,Y+2
 975 0526 DB80      		ldd r13,Y+3
 976 0528 CB59      		subi r28,lo8(155)
 977 052a D040      		sbci r29,hi8(155)
 978 052c C956      		subi r28,lo8(-151)
 979 052e DF4F      		sbci r29,hi8(-151)
 980 0530 E880      		ld r14,Y
 981 0532 F980      		ldd r15,Y+1
 982 0534 0A81      		ldd r16,Y+2
 983 0536 1B81      		ldd r17,Y+3
 984 0538 C759      		subi r28,lo8(151)
 985 053a D040      		sbci r29,hi8(151)
 986 053c CD56      		subi r28,lo8(-147)
 987 053e DF4F      		sbci r29,hi8(-147)
 988 0540 2881      		ld r18,Y
 989 0542 3981      		ldd r19,Y+1
 990 0544 4A81      		ldd r20,Y+2
 991 0546 5B81      		ldd r21,Y+3
 992 0548 C359      		subi r28,lo8(147)
 993 054a D040      		sbci r29,hi8(147)
 994 054c C156      		subi r28,lo8(-159)
 995 054e DF4F      		sbci r29,hi8(-159)
 996 0550 6881      		ld r22,Y
 997 0552 7981      		ldd r23,Y+1
 998 0554 8A81      		ldd r24,Y+2
 999 0556 9B81      		ldd r25,Y+3
 1000 0558 CF59      		subi r28,lo8(159)
 1001 055a D040      		sbci r29,hi8(159)
 1002 055c 0E94 0000 		call FF
 1003 0560 0FB6      		in __tmp_reg__,__SREG__
 1004 0562 F894      		cli
 1005 0564 DEBF      		out __SP_H__,r29
 1006 0566 0FBE      		out __SREG__,__tmp_reg__
 1007 0568 CDBF      		out __SP_L__,r28
 1008 056a 2B01      		movw r4,r22
 1009 056c 3C01      		movw r6,r24
 177:../freeRTOS750/lib_iinchip/md5.c **** 	d = FF(d, a, b, c, x[1],  S12, 0xe8c7b756); // 2
 1011               	.LM46:
 1012 056e 8D81      		ldd r24,Y+5
 1013 0570 9E81      		ldd r25,Y+6
 1014 0572 AF81      		ldd r26,Y+7
 1015 0574 B885      		ldd r27,Y+8
 1016 0576 6196      		adiw r28,77-60
 1017 0578 8CAF      		std Y+60,r24
 1018 057a 9DAF      		std Y+61,r25
 1019 057c AEAF      		std Y+62,r26
 1020 057e BFAF      		std Y+63,r27
 1021 0580 6197      		sbiw r28,77-60
 1022 0582 88EE      		ldi r24,lo8(-24)
 1023 0584 8F93      		push r24
 1024 0586 97EC      		ldi r25,lo8(-57)
 1025 0588 9F93      		push r25
 1026 058a 87EB      		ldi r24,lo8(-73)
 1027 058c 8F93      		push r24
 1028 058e 86E5      		ldi r24,lo8(86)
 1029 0590 8F93      		push r24
 1030 0592 1F92      		push __zero_reg__
 1031 0594 1F92      		push __zero_reg__
 1032 0596 1F92      		push __zero_reg__
 1033 0598 ACE0      		ldi r26,lo8(12)
 1034 059a AF93      		push r26
 1035 059c BF93      		push r27
 1036 059e 6096      		adiw r28,79-63
 1037 05a0 BFAD      		ldd r27,Y+63
 1038 05a2 6097      		sbiw r28,79-63
 1039 05a4 BF93      		push r27
 1040 05a6 2F96      		adiw r28,78-63
 1041 05a8 EFAD      		ldd r30,Y+63
 1042 05aa 2F97      		sbiw r28,78-63
 1043 05ac EF93      		push r30
 1044 05ae 2E96      		adiw r28,77-63
 1045 05b0 FFAD      		ldd r31,Y+63
 1046 05b2 2E97      		sbiw r28,77-63
 1047 05b4 FF93      		push r31
 1048 05b6 C956      		subi r28,lo8(-151)
 1049 05b8 DF4F      		sbci r29,hi8(-151)
 1050 05ba A880      		ld r10,Y
 1051 05bc B980      		ldd r11,Y+1
 1052 05be CA80      		ldd r12,Y+2
 1053 05c0 DB80      		ldd r13,Y+3
 1054 05c2 C759      		subi r28,lo8(151)
 1055 05c4 D040      		sbci r29,hi8(151)
 1056 05c6 CD56      		subi r28,lo8(-147)
 1057 05c8 DF4F      		sbci r29,hi8(-147)
 1058 05ca E880      		ld r14,Y
 1059 05cc F980      		ldd r15,Y+1
 1060 05ce 0A81      		ldd r16,Y+2
 1061 05d0 1B81      		ldd r17,Y+3
 1062 05d2 C359      		subi r28,lo8(147)
 1063 05d4 D040      		sbci r29,hi8(147)
 1064 05d6 A301      		movw r20,r6
 1065 05d8 9201      		movw r18,r4
 1066 05da C556      		subi r28,lo8(-155)
 1067 05dc DF4F      		sbci r29,hi8(-155)
 1068 05de 6881      		ld r22,Y
 1069 05e0 7981      		ldd r23,Y+1
 1070 05e2 8A81      		ldd r24,Y+2
 1071 05e4 9B81      		ldd r25,Y+3
 1072 05e6 CB59      		subi r28,lo8(155)
 1073 05e8 D040      		sbci r29,hi8(155)
 1074 05ea 0E94 0000 		call FF
 1075 05ee 0FB6      		in __tmp_reg__,__SREG__
 1076 05f0 F894      		cli
 1077 05f2 DEBF      		out __SP_H__,r29
 1078 05f4 0FBE      		out __SREG__,__tmp_reg__
 1079 05f6 CDBF      		out __SP_L__,r28
 1080 05f8 A596      		adiw r28,97-60
 1081 05fa 6CAF      		std Y+60,r22
 1082 05fc 7DAF      		std Y+61,r23
 1083 05fe 8EAF      		std Y+62,r24
 1084 0600 9FAF      		std Y+63,r25
 1085 0602 A597      		sbiw r28,97-60
 178:../freeRTOS750/lib_iinchip/md5.c **** 	c = FF(c, d, a, b, x[2],  S13, 0x242070db); // 3
 1087               	.LM47:
 1088 0604 8985      		ldd r24,Y+9
 1089 0606 9A85      		ldd r25,Y+10
 1090 0608 AB85      		ldd r26,Y+11
 1091 060a BC85      		ldd r27,Y+12
 1092 060c CB57      		subi r28,lo8(-133)
 1093 060e DF4F      		sbci r29,hi8(-133)
 1094 0610 8883      		st Y,r24
 1095 0612 9983      		std Y+1,r25
 1096 0614 AA83      		std Y+2,r26
 1097 0616 BB83      		std Y+3,r27
 1098 0618 C558      		subi r28,lo8(133)
 1099 061a D040      		sbci r29,hi8(133)
 1100 061c 84E2      		ldi r24,lo8(36)
 1101 061e 8F93      		push r24
 1102 0620 80E2      		ldi r24,lo8(32)
 1103 0622 8F93      		push r24
 1104 0624 80E7      		ldi r24,lo8(112)
 1105 0626 8F93      		push r24
 1106 0628 8BED      		ldi r24,lo8(-37)
 1107 062a 8F93      		push r24
 1108 062c 1F92      		push __zero_reg__
 1109 062e 1F92      		push __zero_reg__
 1110 0630 1F92      		push __zero_reg__
 1111 0632 91E1      		ldi r25,lo8(17)
 1112 0634 9F93      		push r25
 1113 0636 BF93      		push r27
 1114 0638 AF93      		push r26
 1115 063a CA57      		subi r28,lo8(-134)
 1116 063c DF4F      		sbci r29,hi8(-134)
 1117 063e A881      		ld r26,Y
 1118 0640 C658      		subi r28,lo8(134)
 1119 0642 D040      		sbci r29,hi8(134)
 1120 0644 AF93      		push r26
 1121 0646 CB57      		subi r28,lo8(-133)
 1122 0648 DF4F      		sbci r29,hi8(-133)
 1123 064a B881      		ld r27,Y
 1124 064c C558      		subi r28,lo8(133)
 1125 064e D040      		sbci r29,hi8(133)
 1126 0650 BF93      		push r27
 1127 0652 CD56      		subi r28,lo8(-147)
 1128 0654 DF4F      		sbci r29,hi8(-147)
 1129 0656 A880      		ld r10,Y
 1130 0658 B980      		ldd r11,Y+1
 1131 065a CA80      		ldd r12,Y+2
 1132 065c DB80      		ldd r13,Y+3
 1133 065e C359      		subi r28,lo8(147)
 1134 0660 D040      		sbci r29,hi8(147)
 1135 0662 8301      		movw r16,r6
 1136 0664 7201      		movw r14,r4
 1137 0666 A596      		adiw r28,97-60
 1138 0668 2CAD      		ldd r18,Y+60
 1139 066a 3DAD      		ldd r19,Y+61
 1140 066c 4EAD      		ldd r20,Y+62
 1141 066e 5FAD      		ldd r21,Y+63
 1142 0670 A597      		sbiw r28,97-60
 1143 0672 C956      		subi r28,lo8(-151)
 1144 0674 DF4F      		sbci r29,hi8(-151)
 1145 0676 6881      		ld r22,Y
 1146 0678 7981      		ldd r23,Y+1
 1147 067a 8A81      		ldd r24,Y+2
 1148 067c 9B81      		ldd r25,Y+3
 1149 067e C759      		subi r28,lo8(151)
 1150 0680 D040      		sbci r29,hi8(151)
 1151 0682 0E94 0000 		call FF
 1152 0686 0FB6      		in __tmp_reg__,__SREG__
 1153 0688 F894      		cli
 1154 068a DEBF      		out __SP_H__,r29
 1155 068c 0FBE      		out __SREG__,__tmp_reg__
 1156 068e CDBF      		out __SP_L__,r28
 1157 0690 6996      		adiw r28,85-60
 1158 0692 6CAF      		std Y+60,r22
 1159 0694 7DAF      		std Y+61,r23
 1160 0696 8EAF      		std Y+62,r24
 1161 0698 9FAF      		std Y+63,r25
 1162 069a 6997      		sbiw r28,85-60
 179:../freeRTOS750/lib_iinchip/md5.c **** 	b = FF(b, c, d, a, x[3],  S14, 0xc1bdceee); // 4
 1164               	.LM48:
 1165 069c AD84      		ldd r10,Y+13
 1166 069e BE84      		ldd r11,Y+14
 1167 06a0 CF84      		ldd r12,Y+15
 1168 06a2 D888      		ldd r13,Y+16
 1169 06a4 6596      		adiw r28,81-60
 1170 06a6 ACAE      		std Y+60,r10
 1171 06a8 BDAE      		std Y+61,r11
 1172 06aa CEAE      		std Y+62,r12
 1173 06ac DFAE      		std Y+63,r13
 1174 06ae 6597      		sbiw r28,81-60
 1175 06b0 81EC      		ldi r24,lo8(-63)
 1176 06b2 8F93      		push r24
 1177 06b4 2DEB      		ldi r18,lo8(-67)
 1178 06b6 B22E      		mov r11,r18
 1179 06b8 BF92      		push r11
 1180 06ba 8EEC      		ldi r24,lo8(-50)
 1181 06bc 8F93      		push r24
 1182 06be 8EEE      		ldi r24,lo8(-18)
 1183 06c0 8F93      		push r24
 1184 06c2 1F92      		push __zero_reg__
 1185 06c4 1F92      		push __zero_reg__
 1186 06c6 1F92      		push __zero_reg__
 1187 06c8 36E1      		ldi r19,lo8(22)
 1188 06ca 332E      		mov r3,r19
 1189 06cc 3F92      		push r3
 1190 06ce DF92      		push r13
 1191 06d0 CF92      		push r12
 1192 06d2 6396      		adiw r28,82-63
 1193 06d4 CFAC      		ldd r12,Y+63
 1194 06d6 6397      		sbiw r28,82-63
 1195 06d8 CF92      		push r12
 1196 06da AF92      		push r10
 1197 06dc 6301      		movw r12,r6
 1198 06de 5201      		movw r10,r4
 1199 06e0 A596      		adiw r28,97-60
 1200 06e2 ECAC      		ldd r14,Y+60
 1201 06e4 FDAC      		ldd r15,Y+61
 1202 06e6 0EAD      		ldd r16,Y+62
 1203 06e8 1FAD      		ldd r17,Y+63
 1204 06ea A597      		sbiw r28,97-60
 1205 06ec 6996      		adiw r28,85-60
 1206 06ee 2CAD      		ldd r18,Y+60
 1207 06f0 3DAD      		ldd r19,Y+61
 1208 06f2 4EAD      		ldd r20,Y+62
 1209 06f4 5FAD      		ldd r21,Y+63
 1210 06f6 6997      		sbiw r28,85-60
 1211 06f8 CD56      		subi r28,lo8(-147)
 1212 06fa DF4F      		sbci r29,hi8(-147)
 1213 06fc 6881      		ld r22,Y
 1214 06fe 7981      		ldd r23,Y+1
 1215 0700 8A81      		ldd r24,Y+2
 1216 0702 9B81      		ldd r25,Y+3
 1217 0704 C359      		subi r28,lo8(147)
 1218 0706 D040      		sbci r29,hi8(147)
 1219 0708 0E94 0000 		call FF
 1220 070c 0FB6      		in __tmp_reg__,__SREG__
 1221 070e F894      		cli
 1222 0710 DEBF      		out __SP_H__,r29
 1223 0712 0FBE      		out __SREG__,__tmp_reg__
 1224 0714 CDBF      		out __SP_L__,r28
 1225 0716 A996      		adiw r28,101-60
 1226 0718 6CAF      		std Y+60,r22
 1227 071a 7DAF      		std Y+61,r23
 1228 071c 8EAF      		std Y+62,r24
 1229 071e 9FAF      		std Y+63,r25
 1230 0720 A997      		sbiw r28,101-60
 180:../freeRTOS750/lib_iinchip/md5.c **** 	a = FF(a, b, c, d, x[4],  S11, 0xf57c0faf); // 5
 1232               	.LM49:
 1233 0722 8989      		ldd r24,Y+17
 1234 0724 9A89      		ldd r25,Y+18
 1235 0726 AB89      		ldd r26,Y+19
 1236 0728 BC89      		ldd r27,Y+20
 1237 072a CF57      		subi r28,lo8(-129)
 1238 072c DF4F      		sbci r29,hi8(-129)
 1239 072e 8883      		st Y,r24
 1240 0730 9983      		std Y+1,r25
 1241 0732 AA83      		std Y+2,r26
 1242 0734 BB83      		std Y+3,r27
 1243 0736 C158      		subi r28,lo8(129)
 1244 0738 D040      		sbci r29,hi8(129)
 1245 073a 85EF      		ldi r24,lo8(-11)
 1246 073c 8F93      		push r24
 1247 073e 8CE7      		ldi r24,lo8(124)
 1248 0740 8F93      		push r24
 1249 0742 9FE0      		ldi r25,lo8(15)
 1250 0744 9F93      		push r25
 1251 0746 AFEA      		ldi r26,lo8(-81)
 1252 0748 AF93      		push r26
 1253 074a 1F92      		push __zero_reg__
 1254 074c 1F92      		push __zero_reg__
 1255 074e 1F92      		push __zero_reg__
 1256 0750 8F92      		push r8
 1257 0752 BF93      		push r27
 1258 0754 CD57      		subi r28,lo8(-131)
 1259 0756 DF4F      		sbci r29,hi8(-131)
 1260 0758 B881      		ld r27,Y
 1261 075a C358      		subi r28,lo8(131)
 1262 075c D040      		sbci r29,hi8(131)
 1263 075e BF93      		push r27
 1264 0760 CE57      		subi r28,lo8(-130)
 1265 0762 DF4F      		sbci r29,hi8(-130)
 1266 0764 E881      		ld r30,Y
 1267 0766 C258      		subi r28,lo8(130)
 1268 0768 D040      		sbci r29,hi8(130)
 1269 076a EF93      		push r30
 1270 076c CF57      		subi r28,lo8(-129)
 1271 076e DF4F      		sbci r29,hi8(-129)
 1272 0770 F881      		ld r31,Y
 1273 0772 C158      		subi r28,lo8(129)
 1274 0774 D040      		sbci r29,hi8(129)
 1275 0776 FF93      		push r31
 1276 0778 A596      		adiw r28,97-60
 1277 077a ACAC      		ldd r10,Y+60
 1278 077c BDAC      		ldd r11,Y+61
 1279 077e CEAC      		ldd r12,Y+62
 1280 0780 DFAC      		ldd r13,Y+63
 1281 0782 A597      		sbiw r28,97-60
 1282 0784 6996      		adiw r28,85-60
 1283 0786 ECAC      		ldd r14,Y+60
 1284 0788 FDAC      		ldd r15,Y+61
 1285 078a 0EAD      		ldd r16,Y+62
 1286 078c 1FAD      		ldd r17,Y+63
 1287 078e 6997      		sbiw r28,85-60
 1288 0790 A996      		adiw r28,101-60
 1289 0792 2CAD      		ldd r18,Y+60
 1290 0794 3DAD      		ldd r19,Y+61
 1291 0796 4EAD      		ldd r20,Y+62
 1292 0798 5FAD      		ldd r21,Y+63
 1293 079a A997      		sbiw r28,101-60
 1294 079c C301      		movw r24,r6
 1295 079e B201      		movw r22,r4
 1296 07a0 0E94 0000 		call FF
 1297 07a4 0FB6      		in __tmp_reg__,__SREG__
 1298 07a6 F894      		cli
 1299 07a8 DEBF      		out __SP_H__,r29
 1300 07aa 0FBE      		out __SREG__,__tmp_reg__
 1301 07ac CDBF      		out __SP_L__,r28
 1302 07ae AD96      		adiw r28,105-60
 1303 07b0 6CAF      		std Y+60,r22
 1304 07b2 7DAF      		std Y+61,r23
 1305 07b4 8EAF      		std Y+62,r24
 1306 07b6 9FAF      		std Y+63,r25
 1307 07b8 AD97      		sbiw r28,105-60
 181:../freeRTOS750/lib_iinchip/md5.c **** 	d = FF(d, a, b, c, x[5],  S12, 0x4787c62a); // 6
 1309               	.LM50:
 1310 07ba 4D88      		ldd r4,Y+21
 1311 07bc 5E88      		ldd r5,Y+22
 1312 07be 6F88      		ldd r6,Y+23
 1313 07c0 788C      		ldd r7,Y+24
 1314 07c2 A196      		adiw r28,93-60
 1315 07c4 4CAE      		std Y+60,r4
 1316 07c6 5DAE      		std Y+61,r5
 1317 07c8 6EAE      		std Y+62,r6
 1318 07ca 7FAE      		std Y+63,r7
 1319 07cc A197      		sbiw r28,93-60
 1320 07ce 87E4      		ldi r24,lo8(71)
 1321 07d0 8F93      		push r24
 1322 07d2 47E8      		ldi r20,lo8(-121)
 1323 07d4 542E      		mov r5,r20
 1324 07d6 5F92      		push r5
 1325 07d8 86EC      		ldi r24,lo8(-58)
 1326 07da 8F93      		push r24
 1327 07dc 5AE2      		ldi r21,lo8(42)
 1328 07de 652E      		mov r6,r21
 1329 07e0 6F92      		push r6
 1330 07e2 1F92      		push __zero_reg__
 1331 07e4 1F92      		push __zero_reg__
 1332 07e6 1F92      		push __zero_reg__
 1333 07e8 6CE0      		ldi r22,lo8(12)
 1334 07ea 762E      		mov r7,r22
 1335 07ec 7F92      		push r7
 1336 07ee A196      		adiw r28,96-63
 1337 07f0 9FAC      		ldd r9,Y+63
 1338 07f2 A197      		sbiw r28,96-63
 1339 07f4 9F92      		push r9
 1340 07f6 A096      		adiw r28,95-63
 1341 07f8 AFAC      		ldd r10,Y+63
 1342 07fa A097      		sbiw r28,95-63
 1343 07fc AF92      		push r10
 1344 07fe 6F96      		adiw r28,94-63
 1345 0800 BFAC      		ldd r11,Y+63
 1346 0802 6F97      		sbiw r28,94-63
 1347 0804 BF92      		push r11
 1348 0806 4F92      		push r4
 1349 0808 6996      		adiw r28,85-60
 1350 080a ACAC      		ldd r10,Y+60
 1351 080c BDAC      		ldd r11,Y+61
 1352 080e CEAC      		ldd r12,Y+62
 1353 0810 DFAC      		ldd r13,Y+63
 1354 0812 6997      		sbiw r28,85-60
 1355 0814 A996      		adiw r28,101-60
 1356 0816 ECAC      		ldd r14,Y+60
 1357 0818 FDAC      		ldd r15,Y+61
 1358 081a 0EAD      		ldd r16,Y+62
 1359 081c 1FAD      		ldd r17,Y+63
 1360 081e A997      		sbiw r28,101-60
 1361 0820 AD96      		adiw r28,105-60
 1362 0822 2CAD      		ldd r18,Y+60
 1363 0824 3DAD      		ldd r19,Y+61
 1364 0826 4EAD      		ldd r20,Y+62
 1365 0828 5FAD      		ldd r21,Y+63
 1366 082a AD97      		sbiw r28,105-60
 1367 082c A596      		adiw r28,97-60
 1368 082e 6CAD      		ldd r22,Y+60
 1369 0830 7DAD      		ldd r23,Y+61
 1370 0832 8EAD      		ldd r24,Y+62
 1371 0834 9FAD      		ldd r25,Y+63
 1372 0836 A597      		sbiw r28,97-60
 1373 0838 0E94 0000 		call FF
 1374 083c 0FB6      		in __tmp_reg__,__SREG__
 1375 083e F894      		cli
 1376 0840 DEBF      		out __SP_H__,r29
 1377 0842 0FBE      		out __SREG__,__tmp_reg__
 1378 0844 CDBF      		out __SP_L__,r28
 1379 0846 2B01      		movw r4,r22
 1380 0848 3C01      		movw r6,r24
 182:../freeRTOS750/lib_iinchip/md5.c **** 	c = FF(c, d, a, b, x[6],  S13, 0xa8304613); // 7
 1382               	.LM51:
 1383 084a 898D      		ldd r24,Y+25
 1384 084c 9A8D      		ldd r25,Y+26
 1385 084e AB8D      		ldd r26,Y+27
 1386 0850 BC8D      		ldd r27,Y+28
 1387 0852 A596      		adiw r28,97-60
 1388 0854 8CAF      		std Y+60,r24
 1389 0856 9DAF      		std Y+61,r25
 1390 0858 AEAF      		std Y+62,r26
 1391 085a BFAF      		std Y+63,r27
 1392 085c A597      		sbiw r28,97-60
 1393 085e 98EA      		ldi r25,lo8(-88)
 1394 0860 9F93      		push r25
 1395 0862 80E3      		ldi r24,lo8(48)
 1396 0864 8F93      		push r24
 1397 0866 76E4      		ldi r23,lo8(70)
 1398 0868 972E      		mov r9,r23
 1399 086a 9F92      		push r9
 1400 086c 83E1      		ldi r24,lo8(19)
 1401 086e 8F93      		push r24
 1402 0870 1F92      		push __zero_reg__
 1403 0872 1F92      		push __zero_reg__
 1404 0874 1F92      		push __zero_reg__
 1405 0876 A1E1      		ldi r26,lo8(17)
 1406 0878 AF93      		push r26
 1407 087a BF93      		push r27
 1408 087c A496      		adiw r28,99-63
 1409 087e BFAD      		ldd r27,Y+63
 1410 0880 A497      		sbiw r28,99-63
 1411 0882 BF93      		push r27
 1412 0884 A396      		adiw r28,98-63
 1413 0886 EFAD      		ldd r30,Y+63
 1414 0888 A397      		sbiw r28,98-63
 1415 088a EF93      		push r30
 1416 088c A296      		adiw r28,97-63
 1417 088e FFAD      		ldd r31,Y+63
 1418 0890 A297      		sbiw r28,97-63
 1419 0892 FF93      		push r31
 1420 0894 A996      		adiw r28,101-60
 1421 0896 ACAC      		ldd r10,Y+60
 1422 0898 BDAC      		ldd r11,Y+61
 1423 089a CEAC      		ldd r12,Y+62
 1424 089c DFAC      		ldd r13,Y+63
 1425 089e A997      		sbiw r28,101-60
 1426 08a0 AD96      		adiw r28,105-60
 1427 08a2 ECAC      		ldd r14,Y+60
 1428 08a4 FDAC      		ldd r15,Y+61
 1429 08a6 0EAD      		ldd r16,Y+62
 1430 08a8 1FAD      		ldd r17,Y+63
 1431 08aa AD97      		sbiw r28,105-60
 1432 08ac A301      		movw r20,r6
 1433 08ae 9201      		movw r18,r4
 1434 08b0 6996      		adiw r28,85-60
 1435 08b2 6CAD      		ldd r22,Y+60
 1436 08b4 7DAD      		ldd r23,Y+61
 1437 08b6 8EAD      		ldd r24,Y+62
 1438 08b8 9FAD      		ldd r25,Y+63
 1439 08ba 6997      		sbiw r28,85-60
 1440 08bc 0E94 0000 		call FF
 1441 08c0 0FB6      		in __tmp_reg__,__SREG__
 1442 08c2 F894      		cli
 1443 08c4 DEBF      		out __SP_H__,r29
 1444 08c6 0FBE      		out __SREG__,__tmp_reg__
 1445 08c8 CDBF      		out __SP_L__,r28
 1446 08ca E196      		adiw r28,109-60
 1447 08cc 6CAF      		std Y+60,r22
 1448 08ce 7DAF      		std Y+61,r23
 1449 08d0 8EAF      		std Y+62,r24
 1450 08d2 9FAF      		std Y+63,r25
 1451 08d4 E197      		sbiw r28,109-60
 183:../freeRTOS750/lib_iinchip/md5.c **** 	b = FF(b, c, d, a, x[7],  S14, 0xfd469501); // 8
 1453               	.LM52:
 1454 08d6 8D8D      		ldd r24,Y+29
 1455 08d8 9E8D      		ldd r25,Y+30
 1456 08da AF8D      		ldd r26,Y+31
 1457 08dc B8A1      		ldd r27,Y+32
 1458 08de 6996      		adiw r28,85-60
 1459 08e0 8CAF      		std Y+60,r24
 1460 08e2 9DAF      		std Y+61,r25
 1461 08e4 AEAF      		std Y+62,r26
 1462 08e6 BFAF      		std Y+63,r27
 1463 08e8 6997      		sbiw r28,85-60
 1464 08ea EDEF      		ldi r30,lo8(-3)
 1465 08ec 2E2E      		mov r2,r30
 1466 08ee 2F92      		push r2
 1467 08f0 9F92      		push r9
 1468 08f2 85E9      		ldi r24,lo8(-107)
 1469 08f4 8F93      		push r24
 1470 08f6 91E0      		ldi r25,lo8(1)
 1471 08f8 9F93      		push r25
 1472 08fa 1F92      		push __zero_reg__
 1473 08fc 1F92      		push __zero_reg__
 1474 08fe 1F92      		push __zero_reg__
 1475 0900 3F92      		push r3
 1476 0902 BF93      		push r27
 1477 0904 AF93      		push r26
 1478 0906 6796      		adiw r28,86-63
 1479 0908 AFAD      		ldd r26,Y+63
 1480 090a 6797      		sbiw r28,86-63
 1481 090c AF93      		push r26
 1482 090e 6696      		adiw r28,85-63
 1483 0910 BFAD      		ldd r27,Y+63
 1484 0912 6697      		sbiw r28,85-63
 1485 0914 BF93      		push r27
 1486 0916 AD96      		adiw r28,105-60
 1487 0918 ACAC      		ldd r10,Y+60
 1488 091a BDAC      		ldd r11,Y+61
 1489 091c CEAC      		ldd r12,Y+62
 1490 091e DFAC      		ldd r13,Y+63
 1491 0920 AD97      		sbiw r28,105-60
 1492 0922 8301      		movw r16,r6
 1493 0924 7201      		movw r14,r4
 1494 0926 E196      		adiw r28,109-60
 1495 0928 2CAD      		ldd r18,Y+60
 1496 092a 3DAD      		ldd r19,Y+61
 1497 092c 4EAD      		ldd r20,Y+62
 1498 092e 5FAD      		ldd r21,Y+63
 1499 0930 E197      		sbiw r28,109-60
 1500 0932 A996      		adiw r28,101-60
 1501 0934 6CAD      		ldd r22,Y+60
 1502 0936 7DAD      		ldd r23,Y+61
 1503 0938 8EAD      		ldd r24,Y+62
 1504 093a 9FAD      		ldd r25,Y+63
 1505 093c A997      		sbiw r28,101-60
 1506 093e 0E94 0000 		call FF
 1507 0942 0FB6      		in __tmp_reg__,__SREG__
 1508 0944 F894      		cli
 1509 0946 DEBF      		out __SP_H__,r29
 1510 0948 0FBE      		out __SREG__,__tmp_reg__
 1511 094a CDBF      		out __SP_L__,r28
 1512 094c E596      		adiw r28,113-60
 1513 094e 6CAF      		std Y+60,r22
 1514 0950 7DAF      		std Y+61,r23
 1515 0952 8EAF      		std Y+62,r24
 1516 0954 9FAF      		std Y+63,r25
 1517 0956 E597      		sbiw r28,113-60
 184:../freeRTOS750/lib_iinchip/md5.c **** 	a = FF(a, b, c, d, x[8],  S11, 0x698098d8); // 9
 1519               	.LM53:
 1520 0958 A9A0      		ldd r10,Y+33
 1521 095a BAA0      		ldd r11,Y+34
 1522 095c CBA0      		ldd r12,Y+35
 1523 095e DCA0      		ldd r13,Y+36
 1524 0960 A996      		adiw r28,101-60
 1525 0962 ACAE      		std Y+60,r10
 1526 0964 BDAE      		std Y+61,r11
 1527 0966 CEAE      		std Y+62,r12
 1528 0968 DFAE      		std Y+63,r13
 1529 096a A997      		sbiw r28,101-60
 1530 096c 89E6      		ldi r24,lo8(105)
 1531 096e 8F93      		push r24
 1532 0970 80E8      		ldi r24,lo8(-128)
 1533 0972 8F93      		push r24
 1534 0974 F8E9      		ldi r31,lo8(-104)
 1535 0976 9F2E      		mov r9,r31
 1536 0978 9F92      		push r9
 1537 097a A8ED      		ldi r26,lo8(-40)
 1538 097c BA2E      		mov r11,r26
 1539 097e BF92      		push r11
 1540 0980 1F92      		push __zero_reg__
 1541 0982 1F92      		push __zero_reg__
 1542 0984 1F92      		push __zero_reg__
 1543 0986 8F92      		push r8
 1544 0988 DF92      		push r13
 1545 098a CF92      		push r12
 1546 098c A796      		adiw r28,102-63
 1547 098e CFAC      		ldd r12,Y+63
 1548 0990 A797      		sbiw r28,102-63
 1549 0992 CF92      		push r12
 1550 0994 AF92      		push r10
 1551 0996 6301      		movw r12,r6
 1552 0998 5201      		movw r10,r4
 1553 099a E196      		adiw r28,109-60
 1554 099c ECAC      		ldd r14,Y+60
 1555 099e FDAC      		ldd r15,Y+61
 1556 09a0 0EAD      		ldd r16,Y+62
 1557 09a2 1FAD      		ldd r17,Y+63
 1558 09a4 E197      		sbiw r28,109-60
 1559 09a6 E596      		adiw r28,113-60
 1560 09a8 2CAD      		ldd r18,Y+60
 1561 09aa 3DAD      		ldd r19,Y+61
 1562 09ac 4EAD      		ldd r20,Y+62
 1563 09ae 5FAD      		ldd r21,Y+63
 1564 09b0 E597      		sbiw r28,113-60
 1565 09b2 AD96      		adiw r28,105-60
 1566 09b4 6CAD      		ldd r22,Y+60
 1567 09b6 7DAD      		ldd r23,Y+61
 1568 09b8 8EAD      		ldd r24,Y+62
 1569 09ba 9FAD      		ldd r25,Y+63
 1570 09bc AD97      		sbiw r28,105-60
 1571 09be 0E94 0000 		call FF
 1572 09c2 0FB6      		in __tmp_reg__,__SREG__
 1573 09c4 F894      		cli
 1574 09c6 DEBF      		out __SP_H__,r29
 1575 09c8 0FBE      		out __SREG__,__tmp_reg__
 1576 09ca CDBF      		out __SP_L__,r28
 1577 09cc E996      		adiw r28,117-60
 1578 09ce 6CAF      		std Y+60,r22
 1579 09d0 7DAF      		std Y+61,r23
 1580 09d2 8EAF      		std Y+62,r24
 1581 09d4 9FAF      		std Y+63,r25
 1582 09d6 E997      		sbiw r28,117-60
 185:../freeRTOS750/lib_iinchip/md5.c **** 	d = FF(d, a, b, c, x[9],  S12, 0x8b44f7af); // 10
 1584               	.LM54:
 1585 09d8 8DA1      		ldd r24,Y+37
 1586 09da 9EA1      		ldd r25,Y+38
 1587 09dc AFA1      		ldd r26,Y+39
 1588 09de B8A5      		ldd r27,Y+40
 1589 09e0 AD96      		adiw r28,105-60
 1590 09e2 8CAF      		std Y+60,r24
 1591 09e4 9DAF      		std Y+61,r25
 1592 09e6 AEAF      		std Y+62,r26
 1593 09e8 BFAF      		std Y+63,r27
 1594 09ea AD97      		sbiw r28,105-60
 1595 09ec 8BE8      		ldi r24,lo8(-117)
 1596 09ee 8F93      		push r24
 1597 09f0 94E4      		ldi r25,lo8(68)
 1598 09f2 9F93      		push r25
 1599 09f4 A7EF      		ldi r26,lo8(-9)
 1600 09f6 AF93      		push r26
 1601 09f8 BFEA      		ldi r27,lo8(-81)
 1602 09fa BF93      		push r27
 1603 09fc 1F92      		push __zero_reg__
 1604 09fe 1F92      		push __zero_reg__
 1605 0a00 1F92      		push __zero_reg__
 1606 0a02 ECE0      		ldi r30,lo8(12)
 1607 0a04 EF93      		push r30
 1608 0a06 AD96      		adiw r28,108-63
 1609 0a08 FFAD      		ldd r31,Y+63
 1610 0a0a AD97      		sbiw r28,108-63
 1611 0a0c FF93      		push r31
 1612 0a0e AC96      		adiw r28,107-63
 1613 0a10 AFAC      		ldd r10,Y+63
 1614 0a12 AC97      		sbiw r28,107-63
 1615 0a14 AF92      		push r10
 1616 0a16 AB96      		adiw r28,106-63
 1617 0a18 BFAC      		ldd r11,Y+63
 1618 0a1a AB97      		sbiw r28,106-63
 1619 0a1c BF92      		push r11
 1620 0a1e AA96      		adiw r28,105-63
 1621 0a20 CFAC      		ldd r12,Y+63
 1622 0a22 AA97      		sbiw r28,105-63
 1623 0a24 CF92      		push r12
 1624 0a26 E196      		adiw r28,109-60
 1625 0a28 ACAC      		ldd r10,Y+60
 1626 0a2a BDAC      		ldd r11,Y+61
 1627 0a2c CEAC      		ldd r12,Y+62
 1628 0a2e DFAC      		ldd r13,Y+63
 1629 0a30 E197      		sbiw r28,109-60
 1630 0a32 E596      		adiw r28,113-60
 1631 0a34 ECAC      		ldd r14,Y+60
 1632 0a36 FDAC      		ldd r15,Y+61
 1633 0a38 0EAD      		ldd r16,Y+62
 1634 0a3a 1FAD      		ldd r17,Y+63
 1635 0a3c E597      		sbiw r28,113-60
 1636 0a3e E996      		adiw r28,117-60
 1637 0a40 2CAD      		ldd r18,Y+60
 1638 0a42 3DAD      		ldd r19,Y+61
 1639 0a44 4EAD      		ldd r20,Y+62
 1640 0a46 5FAD      		ldd r21,Y+63
 1641 0a48 E997      		sbiw r28,117-60
 1642 0a4a C301      		movw r24,r6
 1643 0a4c B201      		movw r22,r4
 1644 0a4e 0E94 0000 		call FF
 1645 0a52 0FB6      		in __tmp_reg__,__SREG__
 1646 0a54 F894      		cli
 1647 0a56 DEBF      		out __SP_H__,r29
 1648 0a58 0FBE      		out __SREG__,__tmp_reg__
 1649 0a5a CDBF      		out __SP_L__,r28
 1650 0a5c 2B01      		movw r4,r22
 1651 0a5e 3C01      		movw r6,r24
 186:../freeRTOS750/lib_iinchip/md5.c **** 	c = FF(c, d, a, b, x[10], S13, 0xffff5bb1); // 11
 1653               	.LM55:
 1654 0a60 89A5      		ldd r24,Y+41
 1655 0a62 9AA5      		ldd r25,Y+42
 1656 0a64 ABA5      		ldd r26,Y+43
 1657 0a66 BCA5      		ldd r27,Y+44
 1658 0a68 C757      		subi r28,lo8(-137)
 1659 0a6a DF4F      		sbci r29,hi8(-137)
 1660 0a6c 8883      		st Y,r24
 1661 0a6e 9983      		std Y+1,r25
 1662 0a70 AA83      		std Y+2,r26
 1663 0a72 BB83      		std Y+3,r27
 1664 0a74 C958      		subi r28,lo8(137)
 1665 0a76 D040      		sbci r29,hi8(137)
 1666 0a78 9FEF      		ldi r25,lo8(-1)
 1667 0a7a 9F93      		push r25
 1668 0a7c 9F93      		push r25
 1669 0a7e ABE5      		ldi r26,lo8(91)
 1670 0a80 AF93      		push r26
 1671 0a82 81EB      		ldi r24,lo8(-79)
 1672 0a84 8F93      		push r24
 1673 0a86 1F92      		push __zero_reg__
 1674 0a88 1F92      		push __zero_reg__
 1675 0a8a 1F92      		push __zero_reg__
 1676 0a8c B1E1      		ldi r27,lo8(17)
 1677 0a8e BF93      		push r27
 1678 0a90 C457      		subi r28,lo8(-140)
 1679 0a92 DF4F      		sbci r29,hi8(-140)
 1680 0a94 E881      		ld r30,Y
 1681 0a96 CC58      		subi r28,lo8(140)
 1682 0a98 D040      		sbci r29,hi8(140)
 1683 0a9a EF93      		push r30
 1684 0a9c C557      		subi r28,lo8(-139)
 1685 0a9e DF4F      		sbci r29,hi8(-139)
 1686 0aa0 F881      		ld r31,Y
 1687 0aa2 CB58      		subi r28,lo8(139)
 1688 0aa4 D040      		sbci r29,hi8(139)
 1689 0aa6 FF93      		push r31
 1690 0aa8 C657      		subi r28,lo8(-138)
 1691 0aaa DF4F      		sbci r29,hi8(-138)
 1692 0aac A880      		ld r10,Y
 1693 0aae CA58      		subi r28,lo8(138)
 1694 0ab0 D040      		sbci r29,hi8(138)
 1695 0ab2 AF92      		push r10
 1696 0ab4 C757      		subi r28,lo8(-137)
 1697 0ab6 DF4F      		sbci r29,hi8(-137)
 1698 0ab8 B880      		ld r11,Y
 1699 0aba C958      		subi r28,lo8(137)
 1700 0abc D040      		sbci r29,hi8(137)
 1701 0abe BF92      		push r11
 1702 0ac0 E596      		adiw r28,113-60
 1703 0ac2 ACAC      		ldd r10,Y+60
 1704 0ac4 BDAC      		ldd r11,Y+61
 1705 0ac6 CEAC      		ldd r12,Y+62
 1706 0ac8 DFAC      		ldd r13,Y+63
 1707 0aca E597      		sbiw r28,113-60
 1708 0acc E996      		adiw r28,117-60
 1709 0ace ECAC      		ldd r14,Y+60
 1710 0ad0 FDAC      		ldd r15,Y+61
 1711 0ad2 0EAD      		ldd r16,Y+62
 1712 0ad4 1FAD      		ldd r17,Y+63
 1713 0ad6 E997      		sbiw r28,117-60
 1714 0ad8 A301      		movw r20,r6
 1715 0ada 9201      		movw r18,r4
 1716 0adc E196      		adiw r28,109-60
 1717 0ade 6CAD      		ldd r22,Y+60
 1718 0ae0 7DAD      		ldd r23,Y+61
 1719 0ae2 8EAD      		ldd r24,Y+62
 1720 0ae4 9FAD      		ldd r25,Y+63
 1721 0ae6 E197      		sbiw r28,109-60
 1722 0ae8 0E94 0000 		call FF
 1723 0aec 0FB6      		in __tmp_reg__,__SREG__
 1724 0aee F894      		cli
 1725 0af0 DEBF      		out __SP_H__,r29
 1726 0af2 0FBE      		out __SREG__,__tmp_reg__
 1727 0af4 CDBF      		out __SP_L__,r28
 1728 0af6 C358      		subi r28,lo8(-125)
 1729 0af8 DF4F      		sbci r29,hi8(-125)
 1730 0afa 6883      		st Y,r22
 1731 0afc 7983      		std Y+1,r23
 1732 0afe 8A83      		std Y+2,r24
 1733 0b00 9B83      		std Y+3,r25
 1734 0b02 CD57      		subi r28,lo8(125)
 1735 0b04 D040      		sbci r29,hi8(125)
 187:../freeRTOS750/lib_iinchip/md5.c **** 	b = FF(b, c, d, a, x[11], S14, 0x895cd7be); // 12
 1737               	.LM56:
 1738 0b06 8DA5      		ldd r24,Y+45
 1739 0b08 9EA5      		ldd r25,Y+46
 1740 0b0a AFA5      		ldd r26,Y+47
 1741 0b0c B8A9      		ldd r27,Y+48
 1742 0b0e E196      		adiw r28,109-60
 1743 0b10 8CAF      		std Y+60,r24
 1744 0b12 9DAF      		std Y+61,r25
 1745 0b14 AEAF      		std Y+62,r26
 1746 0b16 BFAF      		std Y+63,r27
 1747 0b18 E197      		sbiw r28,109-60
 1748 0b1a 89E8      		ldi r24,lo8(-119)
 1749 0b1c 8F93      		push r24
 1750 0b1e 8CE5      		ldi r24,lo8(92)
 1751 0b20 8F93      		push r24
 1752 0b22 97ED      		ldi r25,lo8(-41)
 1753 0b24 9F93      		push r25
 1754 0b26 8EEB      		ldi r24,lo8(-66)
 1755 0b28 8F93      		push r24
 1756 0b2a 1F92      		push __zero_reg__
 1757 0b2c 1F92      		push __zero_reg__
 1758 0b2e 1F92      		push __zero_reg__
 1759 0b30 3F92      		push r3
 1760 0b32 BF93      		push r27
 1761 0b34 AF93      		push r26
 1762 0b36 AF96      		adiw r28,110-63
 1763 0b38 AFAD      		ldd r26,Y+63
 1764 0b3a AF97      		sbiw r28,110-63
 1765 0b3c AF93      		push r26
 1766 0b3e AE96      		adiw r28,109-63
 1767 0b40 BFAD      		ldd r27,Y+63
 1768 0b42 AE97      		sbiw r28,109-63
 1769 0b44 BF93      		push r27
 1770 0b46 E996      		adiw r28,117-60
 1771 0b48 ACAC      		ldd r10,Y+60
 1772 0b4a BDAC      		ldd r11,Y+61
 1773 0b4c CEAC      		ldd r12,Y+62
 1774 0b4e DFAC      		ldd r13,Y+63
 1775 0b50 E997      		sbiw r28,117-60
 1776 0b52 8301      		movw r16,r6
 1777 0b54 7201      		movw r14,r4
 1778 0b56 C358      		subi r28,lo8(-125)
 1779 0b58 DF4F      		sbci r29,hi8(-125)
 1780 0b5a 2881      		ld r18,Y
 1781 0b5c 3981      		ldd r19,Y+1
 1782 0b5e 4A81      		ldd r20,Y+2
 1783 0b60 5B81      		ldd r21,Y+3
 1784 0b62 CD57      		subi r28,lo8(125)
 1785 0b64 D040      		sbci r29,hi8(125)
 1786 0b66 E596      		adiw r28,113-60
 1787 0b68 6CAD      		ldd r22,Y+60
 1788 0b6a 7DAD      		ldd r23,Y+61
 1789 0b6c 8EAD      		ldd r24,Y+62
 1790 0b6e 9FAD      		ldd r25,Y+63
 1791 0b70 E597      		sbiw r28,113-60
 1792 0b72 0E94 0000 		call FF
 1793 0b76 0FB6      		in __tmp_reg__,__SREG__
 1794 0b78 F894      		cli
 1795 0b7a DEBF      		out __SP_H__,r29
 1796 0b7c 0FBE      		out __SREG__,__tmp_reg__
 1797 0b7e CDBF      		out __SP_L__,r28
 1798 0b80 2596      		adiw r28,65-60
 1799 0b82 6CAF      		std Y+60,r22
 1800 0b84 7DAF      		std Y+61,r23
 1801 0b86 8EAF      		std Y+62,r24
 1802 0b88 9FAF      		std Y+63,r25
 1803 0b8a 2597      		sbiw r28,65-60
 188:../freeRTOS750/lib_iinchip/md5.c **** 	a = FF(a, b, c, d, x[12], S11, 0x6b901122); // 13
 1805               	.LM57:
 1806 0b8c A9A8      		ldd r10,Y+49
 1807 0b8e BAA8      		ldd r11,Y+50
 1808 0b90 CBA8      		ldd r12,Y+51
 1809 0b92 DCA8      		ldd r13,Y+52
 1810 0b94 E596      		adiw r28,113-60
 1811 0b96 ACAE      		std Y+60,r10
 1812 0b98 BDAE      		std Y+61,r11
 1813 0b9a CEAE      		std Y+62,r12
 1814 0b9c DFAE      		std Y+63,r13
 1815 0b9e E597      		sbiw r28,113-60
 1816 0ba0 8BE6      		ldi r24,lo8(107)
 1817 0ba2 8F93      		push r24
 1818 0ba4 80E9      		ldi r24,lo8(-112)
 1819 0ba6 8F93      		push r24
 1820 0ba8 B1E1      		ldi r27,lo8(17)
 1821 0baa BB2E      		mov r11,r27
 1822 0bac BF92      		push r11
 1823 0bae 12E2      		ldi r17,lo8(34)
 1824 0bb0 C12E      		mov r12,r17
 1825 0bb2 CF92      		push r12
 1826 0bb4 1F92      		push __zero_reg__
 1827 0bb6 1F92      		push __zero_reg__
 1828 0bb8 1F92      		push __zero_reg__
 1829 0bba 8F92      		push r8
 1830 0bbc DF92      		push r13
 1831 0bbe E496      		adiw r28,115-63
 1832 0bc0 DFAC      		ldd r13,Y+63
 1833 0bc2 E497      		sbiw r28,115-63
 1834 0bc4 DF92      		push r13
 1835 0bc6 E396      		adiw r28,114-63
 1836 0bc8 EFAC      		ldd r14,Y+63
 1837 0bca E397      		sbiw r28,114-63
 1838 0bcc EF92      		push r14
 1839 0bce AF92      		push r10
 1840 0bd0 6301      		movw r12,r6
 1841 0bd2 5201      		movw r10,r4
 1842 0bd4 C358      		subi r28,lo8(-125)
 1843 0bd6 DF4F      		sbci r29,hi8(-125)
 1844 0bd8 E880      		ld r14,Y
 1845 0bda F980      		ldd r15,Y+1
 1846 0bdc 0A81      		ldd r16,Y+2
 1847 0bde 1B81      		ldd r17,Y+3
 1848 0be0 CD57      		subi r28,lo8(125)
 1849 0be2 D040      		sbci r29,hi8(125)
 1850 0be4 2596      		adiw r28,65-60
 1851 0be6 2CAD      		ldd r18,Y+60
 1852 0be8 3DAD      		ldd r19,Y+61
 1853 0bea 4EAD      		ldd r20,Y+62
 1854 0bec 5FAD      		ldd r21,Y+63
 1855 0bee 2597      		sbiw r28,65-60
 1856 0bf0 E996      		adiw r28,117-60
 1857 0bf2 6CAD      		ldd r22,Y+60
 1858 0bf4 7DAD      		ldd r23,Y+61
 1859 0bf6 8EAD      		ldd r24,Y+62
 1860 0bf8 9FAD      		ldd r25,Y+63
 1861 0bfa E997      		sbiw r28,117-60
 1862 0bfc 0E94 0000 		call FF
 1863 0c00 0FB6      		in __tmp_reg__,__SREG__
 1864 0c02 F894      		cli
 1865 0c04 DEBF      		out __SP_H__,r29
 1866 0c06 0FBE      		out __SREG__,__tmp_reg__
 1867 0c08 CDBF      		out __SP_L__,r28
 1868 0c0a 2D96      		adiw r28,73-60
 1869 0c0c 6CAF      		std Y+60,r22
 1870 0c0e 7DAF      		std Y+61,r23
 1871 0c10 8EAF      		std Y+62,r24
 1872 0c12 9FAF      		std Y+63,r25
 1873 0c14 2D97      		sbiw r28,73-60
 189:../freeRTOS750/lib_iinchip/md5.c **** 	d = FF(d, a, b, c, x[13], S12, 0xfd987193); // 14
 1875               	.LM58:
 1876 0c16 8DA9      		ldd r24,Y+53
 1877 0c18 9EA9      		ldd r25,Y+54
 1878 0c1a AFA9      		ldd r26,Y+55
 1879 0c1c B8AD      		ldd r27,Y+56
 1880 0c1e E996      		adiw r28,117-60
 1881 0c20 8CAF      		std Y+60,r24
 1882 0c22 9DAF      		std Y+61,r25
 1883 0c24 AEAF      		std Y+62,r26
 1884 0c26 BFAF      		std Y+63,r27
 1885 0c28 E997      		sbiw r28,117-60
 1886 0c2a 2F92      		push r2
 1887 0c2c 9F92      		push r9
 1888 0c2e 81E7      		ldi r24,lo8(113)
 1889 0c30 8F93      		push r24
 1890 0c32 93E9      		ldi r25,lo8(-109)
 1891 0c34 9F93      		push r25
 1892 0c36 1F92      		push __zero_reg__
 1893 0c38 1F92      		push __zero_reg__
 1894 0c3a 1F92      		push __zero_reg__
 1895 0c3c ACE0      		ldi r26,lo8(12)
 1896 0c3e AF93      		push r26
 1897 0c40 BF93      		push r27
 1898 0c42 E896      		adiw r28,119-63
 1899 0c44 BFAD      		ldd r27,Y+63
 1900 0c46 E897      		sbiw r28,119-63
 1901 0c48 BF93      		push r27
 1902 0c4a E796      		adiw r28,118-63
 1903 0c4c EFAD      		ldd r30,Y+63
 1904 0c4e E797      		sbiw r28,118-63
 1905 0c50 EF93      		push r30
 1906 0c52 E696      		adiw r28,117-63
 1907 0c54 FFAD      		ldd r31,Y+63
 1908 0c56 E697      		sbiw r28,117-63
 1909 0c58 FF93      		push r31
 1910 0c5a C358      		subi r28,lo8(-125)
 1911 0c5c DF4F      		sbci r29,hi8(-125)
 1912 0c5e A880      		ld r10,Y
 1913 0c60 B980      		ldd r11,Y+1
 1914 0c62 CA80      		ldd r12,Y+2
 1915 0c64 DB80      		ldd r13,Y+3
 1916 0c66 CD57      		subi r28,lo8(125)
 1917 0c68 D040      		sbci r29,hi8(125)
 1918 0c6a 2596      		adiw r28,65-60
 1919 0c6c ECAC      		ldd r14,Y+60
 1920 0c6e FDAC      		ldd r15,Y+61
 1921 0c70 0EAD      		ldd r16,Y+62
 1922 0c72 1FAD      		ldd r17,Y+63
 1923 0c74 2597      		sbiw r28,65-60
 1924 0c76 2D96      		adiw r28,73-60
 1925 0c78 2CAD      		ldd r18,Y+60
 1926 0c7a 3DAD      		ldd r19,Y+61
 1927 0c7c 4EAD      		ldd r20,Y+62
 1928 0c7e 5FAD      		ldd r21,Y+63
 1929 0c80 2D97      		sbiw r28,73-60
 1930 0c82 C301      		movw r24,r6
 1931 0c84 B201      		movw r22,r4
 1932 0c86 0E94 0000 		call FF
 1933 0c8a 0FB6      		in __tmp_reg__,__SREG__
 1934 0c8c F894      		cli
 1935 0c8e DEBF      		out __SP_H__,r29
 1936 0c90 0FBE      		out __SREG__,__tmp_reg__
 1937 0c92 CDBF      		out __SP_L__,r28
 1938 0c94 6D96      		adiw r28,89-60
 1939 0c96 6CAF      		std Y+60,r22
 1940 0c98 7DAF      		std Y+61,r23
 1941 0c9a 8EAF      		std Y+62,r24
 1942 0c9c 9FAF      		std Y+63,r25
 1943 0c9e 6D97      		sbiw r28,89-60
 190:../freeRTOS750/lib_iinchip/md5.c **** 	c = FF(c, d, a, b, x[14], S13, 0xa679438e); // 15
 1945               	.LM59:
 1946 0ca0 49AC      		ldd r4,Y+57
 1947 0ca2 5AAC      		ldd r5,Y+58
 1948 0ca4 6BAC      		ldd r6,Y+59
 1949 0ca6 7CAC      		ldd r7,Y+60
 1950 0ca8 ED96      		adiw r28,121-60
 1951 0caa 4CAE      		std Y+60,r4
 1952 0cac 5DAE      		std Y+61,r5
 1953 0cae 6EAE      		std Y+62,r6
 1954 0cb0 7FAE      		std Y+63,r7
 1955 0cb2 ED97      		sbiw r28,121-60
 1956 0cb4 86EA      		ldi r24,lo8(-90)
 1957 0cb6 8F93      		push r24
 1958 0cb8 89E7      		ldi r24,lo8(121)
 1959 0cba 8F93      		push r24
 1960 0cbc 03E4      		ldi r16,lo8(67)
 1961 0cbe 502E      		mov r5,r16
 1962 0cc0 5F92      		push r5
 1963 0cc2 8EE8      		ldi r24,lo8(-114)
 1964 0cc4 8F93      		push r24
 1965 0cc6 1F92      		push __zero_reg__
 1966 0cc8 1F92      		push __zero_reg__
 1967 0cca 1F92      		push __zero_reg__
 1968 0ccc 81E1      		ldi r24,lo8(17)
 1969 0cce 682E      		mov r6,r24
 1970 0cd0 6F92      		push r6
 1971 0cd2 7F92      		push r7
 1972 0cd4 EC96      		adiw r28,123-63
 1973 0cd6 7FAC      		ldd r7,Y+63
 1974 0cd8 EC97      		sbiw r28,123-63
 1975 0cda 7F92      		push r7
 1976 0cdc EB96      		adiw r28,122-63
 1977 0cde 9FAC      		ldd r9,Y+63
 1978 0ce0 EB97      		sbiw r28,122-63
 1979 0ce2 9F92      		push r9
 1980 0ce4 4F92      		push r4
 1981 0ce6 2596      		adiw r28,65-60
 1982 0ce8 ACAC      		ldd r10,Y+60
 1983 0cea BDAC      		ldd r11,Y+61
 1984 0cec CEAC      		ldd r12,Y+62
 1985 0cee DFAC      		ldd r13,Y+63
 1986 0cf0 2597      		sbiw r28,65-60
 1987 0cf2 2D96      		adiw r28,73-60
 1988 0cf4 ECAC      		ldd r14,Y+60
 1989 0cf6 FDAC      		ldd r15,Y+61
 1990 0cf8 0EAD      		ldd r16,Y+62
 1991 0cfa 1FAD      		ldd r17,Y+63
 1992 0cfc 2D97      		sbiw r28,73-60
 1993 0cfe 6D96      		adiw r28,89-60
 1994 0d00 2CAD      		ldd r18,Y+60
 1995 0d02 3DAD      		ldd r19,Y+61
 1996 0d04 4EAD      		ldd r20,Y+62
 1997 0d06 5FAD      		ldd r21,Y+63
 1998 0d08 6D97      		sbiw r28,89-60
 1999 0d0a C358      		subi r28,lo8(-125)
 2000 0d0c DF4F      		sbci r29,hi8(-125)
 2001 0d0e 6881      		ld r22,Y
 2002 0d10 7981      		ldd r23,Y+1
 2003 0d12 8A81      		ldd r24,Y+2
 2004 0d14 9B81      		ldd r25,Y+3
 2005 0d16 CD57      		subi r28,lo8(125)
 2006 0d18 D040      		sbci r29,hi8(125)
 2007 0d1a 0E94 0000 		call FF
 2008 0d1e 0FB6      		in __tmp_reg__,__SREG__
 2009 0d20 F894      		cli
 2010 0d22 DEBF      		out __SP_H__,r29
 2011 0d24 0FBE      		out __SREG__,__tmp_reg__
 2012 0d26 CDBF      		out __SP_L__,r28
 2013 0d28 C357      		subi r28,lo8(-141)
 2014 0d2a DF4F      		sbci r29,hi8(-141)
 2015 0d2c 6883      		st Y,r22
 2016 0d2e 7983      		std Y+1,r23
 2017 0d30 8A83      		std Y+2,r24
 2018 0d32 9B83      		std Y+3,r25
 2019 0d34 CD58      		subi r28,lo8(141)
 2020 0d36 D040      		sbci r29,hi8(141)
 191:../freeRTOS750/lib_iinchip/md5.c **** 	b = FF(b, c, d, a, x[15], S14, 0x49b40821); // 16
 2022               	.LM60:
 2023 0d38 2196      		adiw r28,61-60
 2024 0d3a 4CAC      		ldd r4,Y+60
 2025 0d3c 5DAC      		ldd r5,Y+61
 2026 0d3e 6EAC      		ldd r6,Y+62
 2027 0d40 7FAC      		ldd r7,Y+63
 2028 0d42 2197      		sbiw r28,61-60
 2029 0d44 C358      		subi r28,lo8(-125)
 2030 0d46 DF4F      		sbci r29,hi8(-125)
 2031 0d48 4882      		st Y,r4
 2032 0d4a 5982      		std Y+1,r5
 2033 0d4c 6A82      		std Y+2,r6
 2034 0d4e 7B82      		std Y+3,r7
 2035 0d50 CD57      		subi r28,lo8(125)
 2036 0d52 D040      		sbci r29,hi8(125)
 2037 0d54 89E4      		ldi r24,lo8(73)
 2038 0d56 8F93      		push r24
 2039 0d58 84EB      		ldi r24,lo8(-76)
 2040 0d5a 8F93      		push r24
 2041 0d5c 98E0      		ldi r25,lo8(8)
 2042 0d5e 592E      		mov r5,r25
 2043 0d60 5F92      		push r5
 2044 0d62 21E2      		ldi r18,lo8(33)
 2045 0d64 622E      		mov r6,r18
 2046 0d66 6F92      		push r6
 2047 0d68 1F92      		push __zero_reg__
 2048 0d6a 1F92      		push __zero_reg__
 2049 0d6c 1F92      		push __zero_reg__
 2050 0d6e 3F92      		push r3
 2051 0d70 7F92      		push r7
 2052 0d72 C158      		subi r28,lo8(-127)
 2053 0d74 DF4F      		sbci r29,hi8(-127)
 2054 0d76 7880      		ld r7,Y
 2055 0d78 CF57      		subi r28,lo8(127)
 2056 0d7a D040      		sbci r29,hi8(127)
 2057 0d7c 7F92      		push r7
 2058 0d7e EF96      		adiw r28,126-63
 2059 0d80 9FAC      		ldd r9,Y+63
 2060 0d82 EF97      		sbiw r28,126-63
 2061 0d84 9F92      		push r9
 2062 0d86 4F92      		push r4
 2063 0d88 2D96      		adiw r28,73-60
 2064 0d8a ACAC      		ldd r10,Y+60
 2065 0d8c BDAC      		ldd r11,Y+61
 2066 0d8e CEAC      		ldd r12,Y+62
 2067 0d90 DFAC      		ldd r13,Y+63
 2068 0d92 2D97      		sbiw r28,73-60
 2069 0d94 6D96      		adiw r28,89-60
 2070 0d96 ECAC      		ldd r14,Y+60
 2071 0d98 FDAC      		ldd r15,Y+61
 2072 0d9a 0EAD      		ldd r16,Y+62
 2073 0d9c 1FAD      		ldd r17,Y+63
 2074 0d9e 6D97      		sbiw r28,89-60
 2075 0da0 C357      		subi r28,lo8(-141)
 2076 0da2 DF4F      		sbci r29,hi8(-141)
 2077 0da4 2881      		ld r18,Y
 2078 0da6 3981      		ldd r19,Y+1
 2079 0da8 4A81      		ldd r20,Y+2
 2080 0daa 5B81      		ldd r21,Y+3
 2081 0dac CD58      		subi r28,lo8(141)
 2082 0dae D040      		sbci r29,hi8(141)
 2083 0db0 2596      		adiw r28,65-60
 2084 0db2 6CAD      		ldd r22,Y+60
 2085 0db4 7DAD      		ldd r23,Y+61
 2086 0db6 8EAD      		ldd r24,Y+62
 2087 0db8 9FAD      		ldd r25,Y+63
 2088 0dba 2597      		sbiw r28,65-60
 2089 0dbc 0E94 0000 		call FF
 2090 0dc0 0FB6      		in __tmp_reg__,__SREG__
 2091 0dc2 F894      		cli
 2092 0dc4 DEBF      		out __SP_H__,r29
 2093 0dc6 0FBE      		out __SREG__,__tmp_reg__
 2094 0dc8 CDBF      		out __SP_L__,r28
 2095 0dca 2596      		adiw r28,65-60
 2096 0dcc 6CAF      		std Y+60,r22
 2097 0dce 7DAF      		std Y+61,r23
 2098 0dd0 8EAF      		std Y+62,r24
 2099 0dd2 9FAF      		std Y+63,r25
 2100 0dd4 2597      		sbiw r28,65-60
 194:../freeRTOS750/lib_iinchip/md5.c **** 	a = GG(a, b, c, d, x[1],  S21, 0xf61e2562); // 17
 2102               	.LM61:
 2103 0dd6 86EF      		ldi r24,lo8(-10)
 2104 0dd8 8F93      		push r24
 2105 0dda 8EE1      		ldi r24,lo8(30)
 2106 0ddc 8F93      		push r24
 2107 0dde 85E2      		ldi r24,lo8(37)
 2108 0de0 8F93      		push r24
 2109 0de2 82E6      		ldi r24,lo8(98)
 2110 0de4 8F93      		push r24
 2111 0de6 1F92      		push __zero_reg__
 2112 0de8 1F92      		push __zero_reg__
 2113 0dea 1F92      		push __zero_reg__
 2114 0dec 35E0      		ldi r19,lo8(5)
 2115 0dee 932E      		mov r9,r19
 2116 0df0 9F92      		push r9
 2117 0df2 6196      		adiw r28,80-63
 2118 0df4 3FAD      		ldd r19,Y+63
 2119 0df6 6197      		sbiw r28,80-63
 2120 0df8 3F93      		push r19
 2121 0dfa 6096      		adiw r28,79-63
 2122 0dfc 4FAD      		ldd r20,Y+63
 2123 0dfe 6097      		sbiw r28,79-63
 2124 0e00 4F93      		push r20
 2125 0e02 2F96      		adiw r28,78-63
 2126 0e04 5FAD      		ldd r21,Y+63
 2127 0e06 2F97      		sbiw r28,78-63
 2128 0e08 5F93      		push r21
 2129 0e0a 2E96      		adiw r28,77-63
 2130 0e0c 8FAD      		ldd r24,Y+63
 2131 0e0e 2E97      		sbiw r28,77-63
 2132 0e10 8F93      		push r24
 2133 0e12 6D96      		adiw r28,89-60
 2134 0e14 ACAC      		ldd r10,Y+60
 2135 0e16 BDAC      		ldd r11,Y+61
 2136 0e18 CEAC      		ldd r12,Y+62
 2137 0e1a DFAC      		ldd r13,Y+63
 2138 0e1c 6D97      		sbiw r28,89-60
 2139 0e1e C357      		subi r28,lo8(-141)
 2140 0e20 DF4F      		sbci r29,hi8(-141)
 2141 0e22 E880      		ld r14,Y
 2142 0e24 F980      		ldd r15,Y+1
 2143 0e26 0A81      		ldd r16,Y+2
 2144 0e28 1B81      		ldd r17,Y+3
 2145 0e2a CD58      		subi r28,lo8(141)
 2146 0e2c D040      		sbci r29,hi8(141)
 2147 0e2e 2596      		adiw r28,65-60
 2148 0e30 2CAD      		ldd r18,Y+60
 2149 0e32 3DAD      		ldd r19,Y+61
 2150 0e34 4EAD      		ldd r20,Y+62
 2151 0e36 5FAD      		ldd r21,Y+63
 2152 0e38 2597      		sbiw r28,65-60
 2153 0e3a 2D96      		adiw r28,73-60
 2154 0e3c 6CAD      		ldd r22,Y+60
 2155 0e3e 7DAD      		ldd r23,Y+61
 2156 0e40 8EAD      		ldd r24,Y+62
 2157 0e42 9FAD      		ldd r25,Y+63
 2158 0e44 2D97      		sbiw r28,73-60
 2159 0e46 0E94 0000 		call GG
 2160 0e4a 0FB6      		in __tmp_reg__,__SREG__
 2161 0e4c F894      		cli
 2162 0e4e DEBF      		out __SP_H__,r29
 2163 0e50 0FBE      		out __SREG__,__tmp_reg__
 2164 0e52 CDBF      		out __SP_L__,r28
 2165 0e54 2B01      		movw r4,r22
 2166 0e56 3C01      		movw r6,r24
 195:../freeRTOS750/lib_iinchip/md5.c **** 	d = GG(d, a, b, c, x[6],  S22, 0xc040b340); // 18
 2168               	.LM62:
 2169 0e58 80EC      		ldi r24,lo8(-64)
 2170 0e5a 8F93      		push r24
 2171 0e5c B0E4      		ldi r27,lo8(64)
 2172 0e5e BF93      		push r27
 2173 0e60 83EB      		ldi r24,lo8(-77)
 2174 0e62 8F93      		push r24
 2175 0e64 BF93      		push r27
 2176 0e66 1F92      		push __zero_reg__
 2177 0e68 1F92      		push __zero_reg__
 2178 0e6a 1F92      		push __zero_reg__
 2179 0e6c 49E0      		ldi r20,lo8(9)
 2180 0e6e 342E      		mov r3,r20
 2181 0e70 3F92      		push r3
 2182 0e72 A596      		adiw r28,100-63
 2183 0e74 EFAD      		ldd r30,Y+63
 2184 0e76 A597      		sbiw r28,100-63
 2185 0e78 EF93      		push r30
 2186 0e7a A496      		adiw r28,99-63
 2187 0e7c FFAD      		ldd r31,Y+63
 2188 0e7e A497      		sbiw r28,99-63
 2189 0e80 FF93      		push r31
 2190 0e82 A396      		adiw r28,98-63
 2191 0e84 AFAC      		ldd r10,Y+63
 2192 0e86 A397      		sbiw r28,98-63
 2193 0e88 AF92      		push r10
 2194 0e8a A296      		adiw r28,97-63
 2195 0e8c BFAC      		ldd r11,Y+63
 2196 0e8e A297      		sbiw r28,97-63
 2197 0e90 BF92      		push r11
 2198 0e92 C357      		subi r28,lo8(-141)
 2199 0e94 DF4F      		sbci r29,hi8(-141)
 2200 0e96 A880      		ld r10,Y
 2201 0e98 B980      		ldd r11,Y+1
 2202 0e9a CA80      		ldd r12,Y+2
 2203 0e9c DB80      		ldd r13,Y+3
 2204 0e9e CD58      		subi r28,lo8(141)
 2205 0ea0 D040      		sbci r29,hi8(141)
 2206 0ea2 2596      		adiw r28,65-60
 2207 0ea4 ECAC      		ldd r14,Y+60
 2208 0ea6 FDAC      		ldd r15,Y+61
 2209 0ea8 0EAD      		ldd r16,Y+62
 2210 0eaa 1FAD      		ldd r17,Y+63
 2211 0eac 2597      		sbiw r28,65-60
 2212 0eae A301      		movw r20,r6
 2213 0eb0 9201      		movw r18,r4
 2214 0eb2 6D96      		adiw r28,89-60
 2215 0eb4 6CAD      		ldd r22,Y+60
 2216 0eb6 7DAD      		ldd r23,Y+61
 2217 0eb8 8EAD      		ldd r24,Y+62
 2218 0eba 9FAD      		ldd r25,Y+63
 2219 0ebc 6D97      		sbiw r28,89-60
 2220 0ebe 0E94 0000 		call GG
 2221 0ec2 0FB6      		in __tmp_reg__,__SREG__
 2222 0ec4 F894      		cli
 2223 0ec6 DEBF      		out __SP_H__,r29
 2224 0ec8 0FBE      		out __SREG__,__tmp_reg__
 2225 0eca CDBF      		out __SP_L__,r28
 2226 0ecc 2D96      		adiw r28,73-60
 2227 0ece 6CAF      		std Y+60,r22
 2228 0ed0 7DAF      		std Y+61,r23
 2229 0ed2 8EAF      		std Y+62,r24
 2230 0ed4 9FAF      		std Y+63,r25
 2231 0ed6 2D97      		sbiw r28,73-60
 196:../freeRTOS750/lib_iinchip/md5.c **** 	c = GG(c, d, a, b, x[11], S23, 0x265e5a51); // 19
 2233               	.LM63:
 2234 0ed8 86E2      		ldi r24,lo8(38)
 2235 0eda 8F93      		push r24
 2236 0edc 8EE5      		ldi r24,lo8(94)
 2237 0ede 8F93      		push r24
 2238 0ee0 3AE5      		ldi r19,lo8(90)
 2239 0ee2 3F93      		push r19
 2240 0ee4 81E5      		ldi r24,lo8(81)
 2241 0ee6 8F93      		push r24
 2242 0ee8 1F92      		push __zero_reg__
 2243 0eea 1F92      		push __zero_reg__
 2244 0eec 1F92      		push __zero_reg__
 2245 0eee 5EE0      		ldi r21,lo8(14)
 2246 0ef0 252E      		mov r2,r21
 2247 0ef2 2F92      		push r2
 2248 0ef4 E196      		adiw r28,112-63
 2249 0ef6 4FAD      		ldd r20,Y+63
 2250 0ef8 E197      		sbiw r28,112-63
 2251 0efa 4F93      		push r20
 2252 0efc E096      		adiw r28,111-63
 2253 0efe 5FAD      		ldd r21,Y+63
 2254 0f00 E097      		sbiw r28,111-63
 2255 0f02 5F93      		push r21
 2256 0f04 AF96      		adiw r28,110-63
 2257 0f06 8FAD      		ldd r24,Y+63
 2258 0f08 AF97      		sbiw r28,110-63
 2259 0f0a 8F93      		push r24
 2260 0f0c AE96      		adiw r28,109-63
 2261 0f0e 9FAD      		ldd r25,Y+63
 2262 0f10 AE97      		sbiw r28,109-63
 2263 0f12 9F93      		push r25
 2264 0f14 2596      		adiw r28,65-60
 2265 0f16 ACAC      		ldd r10,Y+60
 2266 0f18 BDAC      		ldd r11,Y+61
 2267 0f1a CEAC      		ldd r12,Y+62
 2268 0f1c DFAC      		ldd r13,Y+63
 2269 0f1e 2597      		sbiw r28,65-60
 2270 0f20 8301      		movw r16,r6
 2271 0f22 7201      		movw r14,r4
 2272 0f24 2D96      		adiw r28,73-60
 2273 0f26 2CAD      		ldd r18,Y+60
 2274 0f28 3DAD      		ldd r19,Y+61
 2275 0f2a 4EAD      		ldd r20,Y+62
 2276 0f2c 5FAD      		ldd r21,Y+63
 2277 0f2e 2D97      		sbiw r28,73-60
 2278 0f30 C357      		subi r28,lo8(-141)
 2279 0f32 DF4F      		sbci r29,hi8(-141)
 2280 0f34 6881      		ld r22,Y
 2281 0f36 7981      		ldd r23,Y+1
 2282 0f38 8A81      		ldd r24,Y+2
 2283 0f3a 9B81      		ldd r25,Y+3
 2284 0f3c CD58      		subi r28,lo8(141)
 2285 0f3e D040      		sbci r29,hi8(141)
 2286 0f40 0E94 0000 		call GG
 2287 0f44 0FB6      		in __tmp_reg__,__SREG__
 2288 0f46 F894      		cli
 2289 0f48 DEBF      		out __SP_H__,r29
 2290 0f4a 0FBE      		out __SREG__,__tmp_reg__
 2291 0f4c CDBF      		out __SP_L__,r28
 2292 0f4e 6D96      		adiw r28,89-60
 2293 0f50 6CAF      		std Y+60,r22
 2294 0f52 7DAF      		std Y+61,r23
 2295 0f54 8EAF      		std Y+62,r24
 2296 0f56 9FAF      		std Y+63,r25
 2297 0f58 6D97      		sbiw r28,89-60
 197:../freeRTOS750/lib_iinchip/md5.c **** 	b = GG(b, c, d, a, x[0],  S24, 0xe9b6c7aa); // 20
 2299               	.LM64:
 2300 0f5a B9EE      		ldi r27,lo8(-23)
 2301 0f5c BF93      		push r27
 2302 0f5e 86EB      		ldi r24,lo8(-74)
 2303 0f60 8F93      		push r24
 2304 0f62 E7EC      		ldi r30,lo8(-57)
 2305 0f64 EF93      		push r30
 2306 0f66 8AEA      		ldi r24,lo8(-86)
 2307 0f68 8F93      		push r24
 2308 0f6a 1F92      		push __zero_reg__
 2309 0f6c 1F92      		push __zero_reg__
 2310 0f6e 1F92      		push __zero_reg__
 2311 0f70 F4E1      		ldi r31,lo8(20)
 2312 0f72 FF93      		push r31
 2313 0f74 2996      		adiw r28,72-63
 2314 0f76 AFAC      		ldd r10,Y+63
 2315 0f78 2997      		sbiw r28,72-63
 2316 0f7a AF92      		push r10
 2317 0f7c 2896      		adiw r28,71-63
 2318 0f7e BFAC      		ldd r11,Y+63
 2319 0f80 2897      		sbiw r28,71-63
 2320 0f82 BF92      		push r11
 2321 0f84 2796      		adiw r28,70-63
 2322 0f86 CFAC      		ldd r12,Y+63
 2323 0f88 2797      		sbiw r28,70-63
 2324 0f8a CF92      		push r12
 2325 0f8c 2696      		adiw r28,69-63
 2326 0f8e DFAC      		ldd r13,Y+63
 2327 0f90 2697      		sbiw r28,69-63
 2328 0f92 DF92      		push r13
 2329 0f94 6301      		movw r12,r6
 2330 0f96 5201      		movw r10,r4
 2331 0f98 2D96      		adiw r28,73-60
 2332 0f9a ECAC      		ldd r14,Y+60
 2333 0f9c FDAC      		ldd r15,Y+61
 2334 0f9e 0EAD      		ldd r16,Y+62
 2335 0fa0 1FAD      		ldd r17,Y+63
 2336 0fa2 2D97      		sbiw r28,73-60
 2337 0fa4 6D96      		adiw r28,89-60
 2338 0fa6 2CAD      		ldd r18,Y+60
 2339 0fa8 3DAD      		ldd r19,Y+61
 2340 0faa 4EAD      		ldd r20,Y+62
 2341 0fac 5FAD      		ldd r21,Y+63
 2342 0fae 6D97      		sbiw r28,89-60
 2343 0fb0 2596      		adiw r28,65-60
 2344 0fb2 6CAD      		ldd r22,Y+60
 2345 0fb4 7DAD      		ldd r23,Y+61
 2346 0fb6 8EAD      		ldd r24,Y+62
 2347 0fb8 9FAD      		ldd r25,Y+63
 2348 0fba 2597      		sbiw r28,65-60
 2349 0fbc 0E94 0000 		call GG
 2350 0fc0 0FB6      		in __tmp_reg__,__SREG__
 2351 0fc2 F894      		cli
 2352 0fc4 DEBF      		out __SP_H__,r29
 2353 0fc6 0FBE      		out __SREG__,__tmp_reg__
 2354 0fc8 CDBF      		out __SP_L__,r28
 2355 0fca 2596      		adiw r28,65-60
 2356 0fcc 6CAF      		std Y+60,r22
 2357 0fce 7DAF      		std Y+61,r23
 2358 0fd0 8EAF      		std Y+62,r24
 2359 0fd2 9FAF      		std Y+63,r25
 2360 0fd4 2597      		sbiw r28,65-60
 198:../freeRTOS750/lib_iinchip/md5.c **** 	a = GG(a, b, c, d, x[5],  S21, 0xd62f105d); // 21
 2362               	.LM65:
 2363 0fd6 36ED      		ldi r19,lo8(-42)
 2364 0fd8 3F93      		push r19
 2365 0fda 8FE2      		ldi r24,lo8(47)
 2366 0fdc 8F93      		push r24
 2367 0fde 80E1      		ldi r24,lo8(16)
 2368 0fe0 8F93      		push r24
 2369 0fe2 4DE5      		ldi r20,lo8(93)
 2370 0fe4 4F93      		push r20
 2371 0fe6 1F92      		push __zero_reg__
 2372 0fe8 1F92      		push __zero_reg__
 2373 0fea 1F92      		push __zero_reg__
 2374 0fec 9F92      		push r9
 2375 0fee A196      		adiw r28,96-63
 2376 0ff0 5FAD      		ldd r21,Y+63
 2377 0ff2 A197      		sbiw r28,96-63
 2378 0ff4 5F93      		push r21
 2379 0ff6 A096      		adiw r28,95-63
 2380 0ff8 8FAD      		ldd r24,Y+63
 2381 0ffa A097      		sbiw r28,95-63
 2382 0ffc 8F93      		push r24
 2383 0ffe 6F96      		adiw r28,94-63
 2384 1000 9FAD      		ldd r25,Y+63
 2385 1002 6F97      		sbiw r28,94-63
 2386 1004 9F93      		push r25
 2387 1006 6E96      		adiw r28,93-63
 2388 1008 AFAD      		ldd r26,Y+63
 2389 100a 6E97      		sbiw r28,93-63
 2390 100c AF93      		push r26
 2391 100e 2D96      		adiw r28,73-60
 2392 1010 ACAC      		ldd r10,Y+60
 2393 1012 BDAC      		ldd r11,Y+61
 2394 1014 CEAC      		ldd r12,Y+62
 2395 1016 DFAC      		ldd r13,Y+63
 2396 1018 2D97      		sbiw r28,73-60
 2397 101a 6D96      		adiw r28,89-60
 2398 101c ECAC      		ldd r14,Y+60
 2399 101e FDAC      		ldd r15,Y+61
 2400 1020 0EAD      		ldd r16,Y+62
 2401 1022 1FAD      		ldd r17,Y+63
 2402 1024 6D97      		sbiw r28,89-60
 2403 1026 2596      		adiw r28,65-60
 2404 1028 2CAD      		ldd r18,Y+60
 2405 102a 3DAD      		ldd r19,Y+61
 2406 102c 4EAD      		ldd r20,Y+62
 2407 102e 5FAD      		ldd r21,Y+63
 2408 1030 2597      		sbiw r28,65-60
 2409 1032 C301      		movw r24,r6
 2410 1034 B201      		movw r22,r4
 2411 1036 0E94 0000 		call GG
 2412 103a 0FB6      		in __tmp_reg__,__SREG__
 2413 103c F894      		cli
 2414 103e DEBF      		out __SP_H__,r29
 2415 1040 0FBE      		out __SREG__,__tmp_reg__
 2416 1042 CDBF      		out __SP_L__,r28
 2417 1044 2B01      		movw r4,r22
 2418 1046 3C01      		movw r6,r24
 199:../freeRTOS750/lib_iinchip/md5.c **** 	d = GG(d, a, b, c, x[10], S22, 0x2441453);  // 22
 2420               	.LM66:
 2421 1048 F2E0      		ldi r31,lo8(2)
 2422 104a FF93      		push r31
 2423 104c 64E4      		ldi r22,lo8(68)
 2424 104e A62E      		mov r10,r22
 2425 1050 AF92      		push r10
 2426 1052 74E1      		ldi r23,lo8(20)
 2427 1054 B72E      		mov r11,r23
 2428 1056 BF92      		push r11
 2429 1058 E3E5      		ldi r30,lo8(83)
 2430 105a CE2E      		mov r12,r30
 2431 105c CF92      		push r12
 2432 105e 1F92      		push __zero_reg__
 2433 1060 1F92      		push __zero_reg__
 2434 1062 1F92      		push __zero_reg__
 2435 1064 3F92      		push r3
 2436 1066 C457      		subi r28,lo8(-140)
 2437 1068 DF4F      		sbci r29,hi8(-140)
 2438 106a D880      		ld r13,Y
 2439 106c CC58      		subi r28,lo8(140)
 2440 106e D040      		sbci r29,hi8(140)
 2441 1070 DF92      		push r13
 2442 1072 C557      		subi r28,lo8(-139)
 2443 1074 DF4F      		sbci r29,hi8(-139)
 2444 1076 E880      		ld r14,Y
 2445 1078 CB58      		subi r28,lo8(139)
 2446 107a D040      		sbci r29,hi8(139)
 2447 107c EF92      		push r14
 2448 107e C657      		subi r28,lo8(-138)
 2449 1080 DF4F      		sbci r29,hi8(-138)
 2450 1082 F880      		ld r15,Y
 2451 1084 CA58      		subi r28,lo8(138)
 2452 1086 D040      		sbci r29,hi8(138)
 2453 1088 FF92      		push r15
 2454 108a C757      		subi r28,lo8(-137)
 2455 108c DF4F      		sbci r29,hi8(-137)
 2456 108e 2881      		ld r18,Y
 2457 1090 C958      		subi r28,lo8(137)
 2458 1092 D040      		sbci r29,hi8(137)
 2459 1094 2F93      		push r18
 2460 1096 6D96      		adiw r28,89-60
 2461 1098 ACAC      		ldd r10,Y+60
 2462 109a BDAC      		ldd r11,Y+61
 2463 109c CEAC      		ldd r12,Y+62
 2464 109e DFAC      		ldd r13,Y+63
 2465 10a0 6D97      		sbiw r28,89-60
 2466 10a2 2596      		adiw r28,65-60
 2467 10a4 ECAC      		ldd r14,Y+60
 2468 10a6 FDAC      		ldd r15,Y+61
 2469 10a8 0EAD      		ldd r16,Y+62
 2470 10aa 1FAD      		ldd r17,Y+63
 2471 10ac 2597      		sbiw r28,65-60
 2472 10ae A301      		movw r20,r6
 2473 10b0 9201      		movw r18,r4
 2474 10b2 2D96      		adiw r28,73-60
 2475 10b4 6CAD      		ldd r22,Y+60
 2476 10b6 7DAD      		ldd r23,Y+61
 2477 10b8 8EAD      		ldd r24,Y+62
 2478 10ba 9FAD      		ldd r25,Y+63
 2479 10bc 2D97      		sbiw r28,73-60
 2480 10be 0E94 0000 		call GG
 2481 10c2 0FB6      		in __tmp_reg__,__SREG__
 2482 10c4 F894      		cli
 2483 10c6 DEBF      		out __SP_H__,r29
 2484 10c8 0FBE      		out __SREG__,__tmp_reg__
 2485 10ca CDBF      		out __SP_L__,r28
 2486 10cc 2D96      		adiw r28,73-60
 2487 10ce 6CAF      		std Y+60,r22
 2488 10d0 7DAF      		std Y+61,r23
 2489 10d2 8EAF      		std Y+62,r24
 2490 10d4 9FAF      		std Y+63,r25
 2491 10d6 2D97      		sbiw r28,73-60
 200:../freeRTOS750/lib_iinchip/md5.c **** 	c = GG(c, d, a, b, x[15], S23, 0xd8a1e681); // 23
 2493               	.LM67:
 2494 10d8 58ED      		ldi r21,lo8(-40)
 2495 10da 5F93      		push r21
 2496 10dc 81EA      		ldi r24,lo8(-95)
 2497 10de 8F93      		push r24
 2498 10e0 96EE      		ldi r25,lo8(-26)
 2499 10e2 9F93      		push r25
 2500 10e4 81E8      		ldi r24,lo8(-127)
 2501 10e6 8F93      		push r24
 2502 10e8 1F92      		push __zero_reg__
 2503 10ea 1F92      		push __zero_reg__
 2504 10ec 1F92      		push __zero_reg__
 2505 10ee 2F92      		push r2
 2506 10f0 C058      		subi r28,lo8(-128)
 2507 10f2 DF4F      		sbci r29,hi8(-128)
 2508 10f4 A881      		ld r26,Y
 2509 10f6 C058      		subi r28,lo8(128)
 2510 10f8 D040      		sbci r29,hi8(128)
 2511 10fa AF93      		push r26
 2512 10fc C158      		subi r28,lo8(-127)
 2513 10fe DF4F      		sbci r29,hi8(-127)
 2514 1100 B881      		ld r27,Y
 2515 1102 CF57      		subi r28,lo8(127)
 2516 1104 D040      		sbci r29,hi8(127)
 2517 1106 BF93      		push r27
 2518 1108 EF96      		adiw r28,126-63
 2519 110a EFAD      		ldd r30,Y+63
 2520 110c EF97      		sbiw r28,126-63
 2521 110e EF93      		push r30
 2522 1110 EE96      		adiw r28,125-63
 2523 1112 FFAD      		ldd r31,Y+63
 2524 1114 EE97      		sbiw r28,125-63
 2525 1116 FF93      		push r31
 2526 1118 2596      		adiw r28,65-60
 2527 111a ACAC      		ldd r10,Y+60
 2528 111c BDAC      		ldd r11,Y+61
 2529 111e CEAC      		ldd r12,Y+62
 2530 1120 DFAC      		ldd r13,Y+63
 2531 1122 2597      		sbiw r28,65-60
 2532 1124 8301      		movw r16,r6
 2533 1126 7201      		movw r14,r4
 2534 1128 2D96      		adiw r28,73-60
 2535 112a 2CAD      		ldd r18,Y+60
 2536 112c 3DAD      		ldd r19,Y+61
 2537 112e 4EAD      		ldd r20,Y+62
 2538 1130 5FAD      		ldd r21,Y+63
 2539 1132 2D97      		sbiw r28,73-60
 2540 1134 6D96      		adiw r28,89-60
 2541 1136 6CAD      		ldd r22,Y+60
 2542 1138 7DAD      		ldd r23,Y+61
 2543 113a 8EAD      		ldd r24,Y+62
 2544 113c 9FAD      		ldd r25,Y+63
 2545 113e 6D97      		sbiw r28,89-60
 2546 1140 0E94 0000 		call GG
 2547 1144 0FB6      		in __tmp_reg__,__SREG__
 2548 1146 F894      		cli
 2549 1148 DEBF      		out __SP_H__,r29
 2550 114a 0FBE      		out __SREG__,__tmp_reg__
 2551 114c CDBF      		out __SP_L__,r28
 2552 114e 6D96      		adiw r28,89-60
 2553 1150 6CAF      		std Y+60,r22
 2554 1152 7DAF      		std Y+61,r23
 2555 1154 8EAF      		std Y+62,r24
 2556 1156 9FAF      		std Y+63,r25
 2557 1158 6D97      		sbiw r28,89-60
 201:../freeRTOS750/lib_iinchip/md5.c **** 	b = GG(b, c, d, a, x[4],  S24, 0xe7d3fbc8); // 24
 2559               	.LM68:
 2560 115a 87EE      		ldi r24,lo8(-25)
 2561 115c 8F93      		push r24
 2562 115e 33ED      		ldi r19,lo8(-45)
 2563 1160 3F93      		push r19
 2564 1162 8BEF      		ldi r24,lo8(-5)
 2565 1164 8F93      		push r24
 2566 1166 88EC      		ldi r24,lo8(-56)
 2567 1168 8F93      		push r24
 2568 116a 1F92      		push __zero_reg__
 2569 116c 1F92      		push __zero_reg__
 2570 116e 1F92      		push __zero_reg__
 2571 1170 44E1      		ldi r20,lo8(20)
 2572 1172 4F93      		push r20
 2573 1174 CC57      		subi r28,lo8(-132)
 2574 1176 DF4F      		sbci r29,hi8(-132)
 2575 1178 5881      		ld r21,Y
 2576 117a C458      		subi r28,lo8(132)
 2577 117c D040      		sbci r29,hi8(132)
 2578 117e 5F93      		push r21
 2579 1180 CD57      		subi r28,lo8(-131)
 2580 1182 DF4F      		sbci r29,hi8(-131)
 2581 1184 8881      		ld r24,Y
 2582 1186 C358      		subi r28,lo8(131)
 2583 1188 D040      		sbci r29,hi8(131)
 2584 118a 8F93      		push r24
 2585 118c CE57      		subi r28,lo8(-130)
 2586 118e DF4F      		sbci r29,hi8(-130)
 2587 1190 9881      		ld r25,Y
 2588 1192 C258      		subi r28,lo8(130)
 2589 1194 D040      		sbci r29,hi8(130)
 2590 1196 9F93      		push r25
 2591 1198 CF57      		subi r28,lo8(-129)
 2592 119a DF4F      		sbci r29,hi8(-129)
 2593 119c A881      		ld r26,Y
 2594 119e C158      		subi r28,lo8(129)
 2595 11a0 D040      		sbci r29,hi8(129)
 2596 11a2 AF93      		push r26
 2597 11a4 6301      		movw r12,r6
 2598 11a6 5201      		movw r10,r4
 2599 11a8 2D96      		adiw r28,73-60
 2600 11aa ECAC      		ldd r14,Y+60
 2601 11ac FDAC      		ldd r15,Y+61
 2602 11ae 0EAD      		ldd r16,Y+62
 2603 11b0 1FAD      		ldd r17,Y+63
 2604 11b2 2D97      		sbiw r28,73-60
 2605 11b4 6D96      		adiw r28,89-60
 2606 11b6 2CAD      		ldd r18,Y+60
 2607 11b8 3DAD      		ldd r19,Y+61
 2608 11ba 4EAD      		ldd r20,Y+62
 2609 11bc 5FAD      		ldd r21,Y+63
 2610 11be 6D97      		sbiw r28,89-60
 2611 11c0 2596      		adiw r28,65-60
 2612 11c2 6CAD      		ldd r22,Y+60
 2613 11c4 7DAD      		ldd r23,Y+61
 2614 11c6 8EAD      		ldd r24,Y+62
 2615 11c8 9FAD      		ldd r25,Y+63
 2616 11ca 2597      		sbiw r28,65-60
 2617 11cc 0E94 0000 		call GG
 2618 11d0 0FB6      		in __tmp_reg__,__SREG__
 2619 11d2 F894      		cli
 2620 11d4 DEBF      		out __SP_H__,r29
 2621 11d6 0FBE      		out __SREG__,__tmp_reg__
 2622 11d8 CDBF      		out __SP_L__,r28
 2623 11da 2596      		adiw r28,65-60
 2624 11dc 6CAF      		std Y+60,r22
 2625 11de 7DAF      		std Y+61,r23
 2626 11e0 8EAF      		std Y+62,r24
 2627 11e2 9FAF      		std Y+63,r25
 2628 11e4 2597      		sbiw r28,65-60
 202:../freeRTOS750/lib_iinchip/md5.c **** 	a = GG(a, b, c, d, x[9],  S21, 0x21e1cde6); // 25
 2630               	.LM69:
 2631 11e6 F1E2      		ldi r31,lo8(33)
 2632 11e8 FF93      		push r31
 2633 11ea 81EE      		ldi r24,lo8(-31)
 2634 11ec 8F93      		push r24
 2635 11ee 8DEC      		ldi r24,lo8(-51)
 2636 11f0 8F93      		push r24
 2637 11f2 F6EE      		ldi r31,lo8(-26)
 2638 11f4 AF2E      		mov r10,r31
 2639 11f6 AF92      		push r10
 2640 11f8 1F92      		push __zero_reg__
 2641 11fa 1F92      		push __zero_reg__
 2642 11fc 1F92      		push __zero_reg__
 2643 11fe 9F92      		push r9
 2644 1200 AD96      		adiw r28,108-63
 2645 1202 BFAC      		ldd r11,Y+63
 2646 1204 AD97      		sbiw r28,108-63
 2647 1206 BF92      		push r11
 2648 1208 AC96      		adiw r28,107-63
 2649 120a CFAC      		ldd r12,Y+63
 2650 120c AC97      		sbiw r28,107-63
 2651 120e CF92      		push r12
 2652 1210 AB96      		adiw r28,106-63
 2653 1212 DFAC      		ldd r13,Y+63
 2654 1214 AB97      		sbiw r28,106-63
 2655 1216 DF92      		push r13
 2656 1218 AA96      		adiw r28,105-63
 2657 121a EFAC      		ldd r14,Y+63
 2658 121c AA97      		sbiw r28,105-63
 2659 121e EF92      		push r14
 2660 1220 2D96      		adiw r28,73-60
 2661 1222 ACAC      		ldd r10,Y+60
 2662 1224 BDAC      		ldd r11,Y+61
 2663 1226 CEAC      		ldd r12,Y+62
 2664 1228 DFAC      		ldd r13,Y+63
 2665 122a 2D97      		sbiw r28,73-60
 2666 122c 6D96      		adiw r28,89-60
 2667 122e ECAC      		ldd r14,Y+60
 2668 1230 FDAC      		ldd r15,Y+61
 2669 1232 0EAD      		ldd r16,Y+62
 2670 1234 1FAD      		ldd r17,Y+63
 2671 1236 6D97      		sbiw r28,89-60
 2672 1238 2596      		adiw r28,65-60
 2673 123a 2CAD      		ldd r18,Y+60
 2674 123c 3DAD      		ldd r19,Y+61
 2675 123e 4EAD      		ldd r20,Y+62
 2676 1240 5FAD      		ldd r21,Y+63
 2677 1242 2597      		sbiw r28,65-60
 2678 1244 C301      		movw r24,r6
 2679 1246 B201      		movw r22,r4
 2680 1248 0E94 0000 		call GG
 2681 124c 0FB6      		in __tmp_reg__,__SREG__
 2682 124e F894      		cli
 2683 1250 DEBF      		out __SP_H__,r29
 2684 1252 0FBE      		out __SREG__,__tmp_reg__
 2685 1254 CDBF      		out __SP_L__,r28
 2686 1256 2B01      		movw r4,r22
 2687 1258 3C01      		movw r6,r24
 203:../freeRTOS750/lib_iinchip/md5.c **** 	d = GG(d, a, b, c, x[14], S22, 0xc33707d6); // 26
 2689               	.LM70:
 2690 125a 33EC      		ldi r19,lo8(-61)
 2691 125c 3F93      		push r19
 2692 125e 87E3      		ldi r24,lo8(55)
 2693 1260 8F93      		push r24
 2694 1262 8F92      		push r8
 2695 1264 46ED      		ldi r20,lo8(-42)
 2696 1266 4F93      		push r20
 2697 1268 1F92      		push __zero_reg__
 2698 126a 1F92      		push __zero_reg__
 2699 126c 1F92      		push __zero_reg__
 2700 126e 3F92      		push r3
 2701 1270 ED96      		adiw r28,124-63
 2702 1272 5FAD      		ldd r21,Y+63
 2703 1274 ED97      		sbiw r28,124-63
 2704 1276 5F93      		push r21
 2705 1278 EC96      		adiw r28,123-63
 2706 127a 8FAD      		ldd r24,Y+63
 2707 127c EC97      		sbiw r28,123-63
 2708 127e 8F93      		push r24
 2709 1280 EB96      		adiw r28,122-63
 2710 1282 9FAD      		ldd r25,Y+63
 2711 1284 EB97      		sbiw r28,122-63
 2712 1286 9F93      		push r25
 2713 1288 EA96      		adiw r28,121-63
 2714 128a AFAD      		ldd r26,Y+63
 2715 128c EA97      		sbiw r28,121-63
 2716 128e AF93      		push r26
 2717 1290 6D96      		adiw r28,89-60
 2718 1292 ACAC      		ldd r10,Y+60
 2719 1294 BDAC      		ldd r11,Y+61
 2720 1296 CEAC      		ldd r12,Y+62
 2721 1298 DFAC      		ldd r13,Y+63
 2722 129a 6D97      		sbiw r28,89-60
 2723 129c 2596      		adiw r28,65-60
 2724 129e ECAC      		ldd r14,Y+60
 2725 12a0 FDAC      		ldd r15,Y+61
 2726 12a2 0EAD      		ldd r16,Y+62
 2727 12a4 1FAD      		ldd r17,Y+63
 2728 12a6 2597      		sbiw r28,65-60
 2729 12a8 A301      		movw r20,r6
 2730 12aa 9201      		movw r18,r4
 2731 12ac 2D96      		adiw r28,73-60
 2732 12ae 6CAD      		ldd r22,Y+60
 2733 12b0 7DAD      		ldd r23,Y+61
 2734 12b2 8EAD      		ldd r24,Y+62
 2735 12b4 9FAD      		ldd r25,Y+63
 2736 12b6 2D97      		sbiw r28,73-60
 2737 12b8 0E94 0000 		call GG
 2738 12bc 0FB6      		in __tmp_reg__,__SREG__
 2739 12be F894      		cli
 2740 12c0 DEBF      		out __SP_H__,r29
 2741 12c2 0FBE      		out __SREG__,__tmp_reg__
 2742 12c4 CDBF      		out __SP_L__,r28
 2743 12c6 2D96      		adiw r28,73-60
 2744 12c8 6CAF      		std Y+60,r22
 2745 12ca 7DAF      		std Y+61,r23
 2746 12cc 8EAF      		std Y+62,r24
 2747 12ce 9FAF      		std Y+63,r25
 2748 12d0 2D97      		sbiw r28,73-60
 204:../freeRTOS750/lib_iinchip/md5.c **** 	c = GG(c, d, a, b, x[3],  S23, 0xf4d50d87); // 27
 2750               	.LM71:
 2751 12d2 F4EF      		ldi r31,lo8(-12)
 2752 12d4 FF93      		push r31
 2753 12d6 85ED      		ldi r24,lo8(-43)
 2754 12d8 8F93      		push r24
 2755 12da 8DE0      		ldi r24,lo8(13)
 2756 12dc 8F93      		push r24
 2757 12de A7E8      		ldi r26,lo8(-121)
 2758 12e0 8A2E      		mov r8,r26
 2759 12e2 8F92      		push r8
 2760 12e4 1F92      		push __zero_reg__
 2761 12e6 1F92      		push __zero_reg__
 2762 12e8 1F92      		push __zero_reg__
 2763 12ea 2F92      		push r2
 2764 12ec 6596      		adiw r28,84-63
 2765 12ee AFAC      		ldd r10,Y+63
 2766 12f0 6597      		sbiw r28,84-63
 2767 12f2 AF92      		push r10
 2768 12f4 6496      		adiw r28,83-63
 2769 12f6 BFAC      		ldd r11,Y+63
 2770 12f8 6497      		sbiw r28,83-63
 2771 12fa BF92      		push r11
 2772 12fc 6396      		adiw r28,82-63
 2773 12fe CFAC      		ldd r12,Y+63
 2774 1300 6397      		sbiw r28,82-63
 2775 1302 CF92      		push r12
 2776 1304 6296      		adiw r28,81-63
 2777 1306 DFAC      		ldd r13,Y+63
 2778 1308 6297      		sbiw r28,81-63
 2779 130a DF92      		push r13
 2780 130c 2596      		adiw r28,65-60
 2781 130e ACAC      		ldd r10,Y+60
 2782 1310 BDAC      		ldd r11,Y+61
 2783 1312 CEAC      		ldd r12,Y+62
 2784 1314 DFAC      		ldd r13,Y+63
 2785 1316 2597      		sbiw r28,65-60
 2786 1318 8301      		movw r16,r6
 2787 131a 7201      		movw r14,r4
 2788 131c 2D96      		adiw r28,73-60
 2789 131e 2CAD      		ldd r18,Y+60
 2790 1320 3DAD      		ldd r19,Y+61
 2791 1322 4EAD      		ldd r20,Y+62
 2792 1324 5FAD      		ldd r21,Y+63
 2793 1326 2D97      		sbiw r28,73-60
 2794 1328 6D96      		adiw r28,89-60
 2795 132a 6CAD      		ldd r22,Y+60
 2796 132c 7DAD      		ldd r23,Y+61
 2797 132e 8EAD      		ldd r24,Y+62
 2798 1330 9FAD      		ldd r25,Y+63
 2799 1332 6D97      		sbiw r28,89-60
 2800 1334 0E94 0000 		call GG
 2801 1338 0FB6      		in __tmp_reg__,__SREG__
 2802 133a F894      		cli
 2803 133c DEBF      		out __SP_H__,r29
 2804 133e 0FBE      		out __SREG__,__tmp_reg__
 2805 1340 CDBF      		out __SP_L__,r28
 2806 1342 6D96      		adiw r28,89-60
 2807 1344 6CAF      		std Y+60,r22
 2808 1346 7DAF      		std Y+61,r23
 2809 1348 8EAF      		std Y+62,r24
 2810 134a 9FAF      		std Y+63,r25
 2811 134c 6D97      		sbiw r28,89-60
 205:../freeRTOS750/lib_iinchip/md5.c **** 	b = GG(b, c, d, a, x[8],  S24, 0x455a14ed); // 28
 2813               	.LM72:
 2814 134e 85E4      		ldi r24,lo8(69)
 2815 1350 8F93      		push r24
 2816 1352 3AE5      		ldi r19,lo8(90)
 2817 1354 3F93      		push r19
 2818 1356 44E1      		ldi r20,lo8(20)
 2819 1358 4F93      		push r20
 2820 135a 8DEE      		ldi r24,lo8(-19)
 2821 135c 8F93      		push r24
 2822 135e 1F92      		push __zero_reg__
 2823 1360 1F92      		push __zero_reg__
 2824 1362 1F92      		push __zero_reg__
 2825 1364 4F93      		push r20
 2826 1366 A996      		adiw r28,104-63
 2827 1368 5FAD      		ldd r21,Y+63
 2828 136a A997      		sbiw r28,104-63
 2829 136c 5F93      		push r21
 2830 136e A896      		adiw r28,103-63
 2831 1370 8FAD      		ldd r24,Y+63
 2832 1372 A897      		sbiw r28,103-63
 2833 1374 8F93      		push r24
 2834 1376 A796      		adiw r28,102-63
 2835 1378 9FAD      		ldd r25,Y+63
 2836 137a A797      		sbiw r28,102-63
 2837 137c 9F93      		push r25
 2838 137e A696      		adiw r28,101-63
 2839 1380 AFAD      		ldd r26,Y+63
 2840 1382 A697      		sbiw r28,101-63
 2841 1384 AF93      		push r26
 2842 1386 6301      		movw r12,r6
 2843 1388 5201      		movw r10,r4
 2844 138a 2D96      		adiw r28,73-60
 2845 138c ECAC      		ldd r14,Y+60
 2846 138e FDAC      		ldd r15,Y+61
 2847 1390 0EAD      		ldd r16,Y+62
 2848 1392 1FAD      		ldd r17,Y+63
 2849 1394 2D97      		sbiw r28,73-60
 2850 1396 6D96      		adiw r28,89-60
 2851 1398 2CAD      		ldd r18,Y+60
 2852 139a 3DAD      		ldd r19,Y+61
 2853 139c 4EAD      		ldd r20,Y+62
 2854 139e 5FAD      		ldd r21,Y+63
 2855 13a0 6D97      		sbiw r28,89-60
 2856 13a2 2596      		adiw r28,65-60
 2857 13a4 6CAD      		ldd r22,Y+60
 2858 13a6 7DAD      		ldd r23,Y+61
 2859 13a8 8EAD      		ldd r24,Y+62
 2860 13aa 9FAD      		ldd r25,Y+63
 2861 13ac 2597      		sbiw r28,65-60
 2862 13ae 0E94 0000 		call GG
 2863 13b2 0FB6      		in __tmp_reg__,__SREG__
 2864 13b4 F894      		cli
 2865 13b6 DEBF      		out __SP_H__,r29
 2866 13b8 0FBE      		out __SREG__,__tmp_reg__
 2867 13ba CDBF      		out __SP_L__,r28
 2868 13bc 2596      		adiw r28,65-60
 2869 13be 6CAF      		std Y+60,r22
 2870 13c0 7DAF      		std Y+61,r23
 2871 13c2 8EAF      		std Y+62,r24
 2872 13c4 9FAF      		std Y+63,r25
 2873 13c6 2597      		sbiw r28,65-60
 206:../freeRTOS750/lib_iinchip/md5.c **** 	a = GG(a, b, c, d, x[13], S21, 0xa9e3e905); // 29
 2875               	.LM73:
 2876 13c8 89EA      		ldi r24,lo8(-87)
 2877 13ca 8F93      		push r24
 2878 13cc 83EE      		ldi r24,lo8(-29)
 2879 13ce 8F93      		push r24
 2880 13d0 F9EE      		ldi r31,lo8(-23)
 2881 13d2 FF93      		push r31
 2882 13d4 9F92      		push r9
 2883 13d6 1F92      		push __zero_reg__
 2884 13d8 1F92      		push __zero_reg__
 2885 13da 1F92      		push __zero_reg__
 2886 13dc 9F92      		push r9
 2887 13de E996      		adiw r28,120-63
 2888 13e0 8FAC      		ldd r8,Y+63
 2889 13e2 E997      		sbiw r28,120-63
 2890 13e4 8F92      		push r8
 2891 13e6 E896      		adiw r28,119-63
 2892 13e8 9FAC      		ldd r9,Y+63
 2893 13ea E897      		sbiw r28,119-63
 2894 13ec 9F92      		push r9
 2895 13ee E796      		adiw r28,118-63
 2896 13f0 AFAC      		ldd r10,Y+63
 2897 13f2 E797      		sbiw r28,118-63
 2898 13f4 AF92      		push r10
 2899 13f6 E696      		adiw r28,117-63
 2900 13f8 BFAC      		ldd r11,Y+63
 2901 13fa E697      		sbiw r28,117-63
 2902 13fc BF92      		push r11
 2903 13fe 2D96      		adiw r28,73-60
 2904 1400 ACAC      		ldd r10,Y+60
 2905 1402 BDAC      		ldd r11,Y+61
 2906 1404 CEAC      		ldd r12,Y+62
 2907 1406 DFAC      		ldd r13,Y+63
 2908 1408 2D97      		sbiw r28,73-60
 2909 140a 6D96      		adiw r28,89-60
 2910 140c ECAC      		ldd r14,Y+60
 2911 140e FDAC      		ldd r15,Y+61
 2912 1410 0EAD      		ldd r16,Y+62
 2913 1412 1FAD      		ldd r17,Y+63
 2914 1414 6D97      		sbiw r28,89-60
 2915 1416 2596      		adiw r28,65-60
 2916 1418 2CAD      		ldd r18,Y+60
 2917 141a 3DAD      		ldd r19,Y+61
 2918 141c 4EAD      		ldd r20,Y+62
 2919 141e 5FAD      		ldd r21,Y+63
 2920 1420 2597      		sbiw r28,65-60
 2921 1422 C301      		movw r24,r6
 2922 1424 B201      		movw r22,r4
 2923 1426 0E94 0000 		call GG
 2924 142a 0FB6      		in __tmp_reg__,__SREG__
 2925 142c F894      		cli
 2926 142e DEBF      		out __SP_H__,r29
 2927 1430 0FBE      		out __SREG__,__tmp_reg__
 2928 1432 CDBF      		out __SP_L__,r28
 2929 1434 C357      		subi r28,lo8(-141)
 2930 1436 DF4F      		sbci r29,hi8(-141)
 2931 1438 6883      		st Y,r22
 2932 143a 7983      		std Y+1,r23
 2933 143c 8A83      		std Y+2,r24
 2934 143e 9B83      		std Y+3,r25
 2935 1440 CD58      		subi r28,lo8(141)
 2936 1442 D040      		sbci r29,hi8(141)
 207:../freeRTOS750/lib_iinchip/md5.c **** 	d = GG(d, a, b, c, x[2],  S22, 0xfcefa3f8); // 30
 2938               	.LM74:
 2939 1444 3CEF      		ldi r19,lo8(-4)
 2940 1446 3F93      		push r19
 2941 1448 4FEE      		ldi r20,lo8(-17)
 2942 144a 4F93      		push r20
 2943 144c 53EA      		ldi r21,lo8(-93)
 2944 144e 5F93      		push r21
 2945 1450 88EF      		ldi r24,lo8(-8)
 2946 1452 8F93      		push r24
 2947 1454 1F92      		push __zero_reg__
 2948 1456 1F92      		push __zero_reg__
 2949 1458 1F92      		push __zero_reg__
 2950 145a 3F92      		push r3
 2951 145c C857      		subi r28,lo8(-136)
 2952 145e DF4F      		sbci r29,hi8(-136)
 2953 1460 8881      		ld r24,Y
 2954 1462 C858      		subi r28,lo8(136)
 2955 1464 D040      		sbci r29,hi8(136)
 2956 1466 8F93      		push r24
 2957 1468 C957      		subi r28,lo8(-135)
 2958 146a DF4F      		sbci r29,hi8(-135)
 2959 146c 9881      		ld r25,Y
 2960 146e C758      		subi r28,lo8(135)
 2961 1470 D040      		sbci r29,hi8(135)
 2962 1472 9F93      		push r25
 2963 1474 CA57      		subi r28,lo8(-134)
 2964 1476 DF4F      		sbci r29,hi8(-134)
 2965 1478 A881      		ld r26,Y
 2966 147a C658      		subi r28,lo8(134)
 2967 147c D040      		sbci r29,hi8(134)
 2968 147e AF93      		push r26
 2969 1480 CB57      		subi r28,lo8(-133)
 2970 1482 DF4F      		sbci r29,hi8(-133)
 2971 1484 B881      		ld r27,Y
 2972 1486 C558      		subi r28,lo8(133)
 2973 1488 D040      		sbci r29,hi8(133)
 2974 148a BF93      		push r27
 2975 148c 6D96      		adiw r28,89-60
 2976 148e ACAC      		ldd r10,Y+60
 2977 1490 BDAC      		ldd r11,Y+61
 2978 1492 CEAC      		ldd r12,Y+62
 2979 1494 DFAC      		ldd r13,Y+63
 2980 1496 6D97      		sbiw r28,89-60
 2981 1498 2596      		adiw r28,65-60
 2982 149a ECAC      		ldd r14,Y+60
 2983 149c FDAC      		ldd r15,Y+61
 2984 149e 0EAD      		ldd r16,Y+62
 2985 14a0 1FAD      		ldd r17,Y+63
 2986 14a2 2597      		sbiw r28,65-60
 2987 14a4 C357      		subi r28,lo8(-141)
 2988 14a6 DF4F      		sbci r29,hi8(-141)
 2989 14a8 2881      		ld r18,Y
 2990 14aa 3981      		ldd r19,Y+1
 2991 14ac 4A81      		ldd r20,Y+2
 2992 14ae 5B81      		ldd r21,Y+3
 2993 14b0 CD58      		subi r28,lo8(141)
 2994 14b2 D040      		sbci r29,hi8(141)
 2995 14b4 2D96      		adiw r28,73-60
 2996 14b6 6CAD      		ldd r22,Y+60
 2997 14b8 7DAD      		ldd r23,Y+61
 2998 14ba 8EAD      		ldd r24,Y+62
 2999 14bc 9FAD      		ldd r25,Y+63
 3000 14be 2D97      		sbiw r28,73-60
 3001 14c0 0E94 0000 		call GG
 3002 14c4 0FB6      		in __tmp_reg__,__SREG__
 3003 14c6 F894      		cli
 3004 14c8 DEBF      		out __SP_H__,r29
 3005 14ca 0FBE      		out __SREG__,__tmp_reg__
 3006 14cc CDBF      		out __SP_L__,r28
 3007 14ce 2D96      		adiw r28,73-60
 3008 14d0 6CAF      		std Y+60,r22
 3009 14d2 7DAF      		std Y+61,r23
 3010 14d4 8EAF      		std Y+62,r24
 3011 14d6 9FAF      		std Y+63,r25
 3012 14d8 2D97      		sbiw r28,73-60
 208:../freeRTOS750/lib_iinchip/md5.c **** 	c = GG(c, d, a, b, x[7],  S23, 0x676f02d9); // 31
 3014               	.LM75:
 3015 14da 87E6      		ldi r24,lo8(103)
 3016 14dc 8F93      		push r24
 3017 14de FFE6      		ldi r31,lo8(111)
 3018 14e0 FF93      		push r31
 3019 14e2 B2E0      		ldi r27,lo8(2)
 3020 14e4 4B2E      		mov r4,r27
 3021 14e6 4F92      		push r4
 3022 14e8 89ED      		ldi r24,lo8(-39)
 3023 14ea 8F93      		push r24
 3024 14ec 1F92      		push __zero_reg__
 3025 14ee 1F92      		push __zero_reg__
 3026 14f0 1F92      		push __zero_reg__
 3027 14f2 2F92      		push r2
 3028 14f4 6996      		adiw r28,88-63
 3029 14f6 5FAC      		ldd r5,Y+63
 3030 14f8 6997      		sbiw r28,88-63
 3031 14fa 5F92      		push r5
 3032 14fc 6896      		adiw r28,87-63
 3033 14fe 6FAC      		ldd r6,Y+63
 3034 1500 6897      		sbiw r28,87-63
 3035 1502 6F92      		push r6
 3036 1504 6796      		adiw r28,86-63
 3037 1506 7FAC      		ldd r7,Y+63
 3038 1508 6797      		sbiw r28,86-63
 3039 150a 7F92      		push r7
 3040 150c 6696      		adiw r28,85-63
 3041 150e 8FAC      		ldd r8,Y+63
 3042 1510 6697      		sbiw r28,85-63
 3043 1512 8F92      		push r8
 3044 1514 2596      		adiw r28,65-60
 3045 1516 ACAC      		ldd r10,Y+60
 3046 1518 BDAC      		ldd r11,Y+61
 3047 151a CEAC      		ldd r12,Y+62
 3048 151c DFAC      		ldd r13,Y+63
 3049 151e 2597      		sbiw r28,65-60
 3050 1520 C357      		subi r28,lo8(-141)
 3051 1522 DF4F      		sbci r29,hi8(-141)
 3052 1524 E880      		ld r14,Y
 3053 1526 F980      		ldd r15,Y+1
 3054 1528 0A81      		ldd r16,Y+2
 3055 152a 1B81      		ldd r17,Y+3
 3056 152c CD58      		subi r28,lo8(141)
 3057 152e D040      		sbci r29,hi8(141)
 3058 1530 2D96      		adiw r28,73-60
 3059 1532 2CAD      		ldd r18,Y+60
 3060 1534 3DAD      		ldd r19,Y+61
 3061 1536 4EAD      		ldd r20,Y+62
 3062 1538 5FAD      		ldd r21,Y+63
 3063 153a 2D97      		sbiw r28,73-60
 3064 153c 6D96      		adiw r28,89-60
 3065 153e 6CAD      		ldd r22,Y+60
 3066 1540 7DAD      		ldd r23,Y+61
 3067 1542 8EAD      		ldd r24,Y+62
 3068 1544 9FAD      		ldd r25,Y+63
 3069 1546 6D97      		sbiw r28,89-60
 3070 1548 0E94 0000 		call GG
 3071 154c 0FB6      		in __tmp_reg__,__SREG__
 3072 154e F894      		cli
 3073 1550 DEBF      		out __SP_H__,r29
 3074 1552 0FBE      		out __SREG__,__tmp_reg__
 3075 1554 CDBF      		out __SP_L__,r28
 3076 1556 2B01      		movw r4,r22
 3077 1558 3C01      		movw r6,r24
 209:../freeRTOS750/lib_iinchip/md5.c **** 	b = GG(b, c, d, a, x[12], S24, 0x8d2a4c8a); // 32
 3079               	.LM76:
 3080 155a 8DE8      		ldi r24,lo8(-115)
 3081 155c 8F93      		push r24
 3082 155e 3AE2      		ldi r19,lo8(42)
 3083 1560 3F93      		push r19
 3084 1562 8CE4      		ldi r24,lo8(76)
 3085 1564 8F93      		push r24
 3086 1566 8AE8      		ldi r24,lo8(-118)
 3087 1568 8F93      		push r24
 3088 156a 1F92      		push __zero_reg__
 3089 156c 1F92      		push __zero_reg__
 3090 156e 1F92      		push __zero_reg__
 3091 1570 44E1      		ldi r20,lo8(20)
 3092 1572 4F93      		push r20
 3093 1574 E596      		adiw r28,116-63
 3094 1576 5FAD      		ldd r21,Y+63
 3095 1578 E597      		sbiw r28,116-63
 3096 157a 5F93      		push r21
 3097 157c E496      		adiw r28,115-63
 3098 157e 8FAD      		ldd r24,Y+63
 3099 1580 E497      		sbiw r28,115-63
 3100 1582 8F93      		push r24
 3101 1584 E396      		adiw r28,114-63
 3102 1586 9FAD      		ldd r25,Y+63
 3103 1588 E397      		sbiw r28,114-63
 3104 158a 9F93      		push r25
 3105 158c E296      		adiw r28,113-63
 3106 158e AFAD      		ldd r26,Y+63
 3107 1590 E297      		sbiw r28,113-63
 3108 1592 AF93      		push r26
 3109 1594 C357      		subi r28,lo8(-141)
 3110 1596 DF4F      		sbci r29,hi8(-141)
 3111 1598 A880      		ld r10,Y
 3112 159a B980      		ldd r11,Y+1
 3113 159c CA80      		ldd r12,Y+2
 3114 159e DB80      		ldd r13,Y+3
 3115 15a0 CD58      		subi r28,lo8(141)
 3116 15a2 D040      		sbci r29,hi8(141)
 3117 15a4 2D96      		adiw r28,73-60
 3118 15a6 ECAC      		ldd r14,Y+60
 3119 15a8 FDAC      		ldd r15,Y+61
 3120 15aa 0EAD      		ldd r16,Y+62
 3121 15ac 1FAD      		ldd r17,Y+63
 3122 15ae 2D97      		sbiw r28,73-60
 3123 15b0 A301      		movw r20,r6
 3124 15b2 9201      		movw r18,r4
 3125 15b4 2596      		adiw r28,65-60
 3126 15b6 6CAD      		ldd r22,Y+60
 3127 15b8 7DAD      		ldd r23,Y+61
 3128 15ba 8EAD      		ldd r24,Y+62
 3129 15bc 9FAD      		ldd r25,Y+63
 3130 15be 2597      		sbiw r28,65-60
 3131 15c0 0E94 0000 		call GG
 3132 15c4 0FB6      		in __tmp_reg__,__SREG__
 3133 15c6 F894      		cli
 3134 15c8 DEBF      		out __SP_H__,r29
 3135 15ca 0FBE      		out __SREG__,__tmp_reg__
 3136 15cc CDBF      		out __SP_L__,r28
 3137               	.LBB38:
 3138               	.LBB39:
  73:../freeRTOS750/lib_iinchip/md5.c **** 		a += H (b, c, d) + x + (uint32_t)(ac);
 3140               	.LM77:
 3141 15ce A196      		adiw r28,93-60
 3142 15d0 0CAD      		ldd r16,Y+60
 3143 15d2 1DAD      		ldd r17,Y+61
 3144 15d4 2EAD      		ldd r18,Y+62
 3145 15d6 3FAD      		ldd r19,Y+63
 3146 15d8 A197      		sbiw r28,93-60
 3147 15da 0E5B      		subi r16,-66
 3148 15dc 164C      		sbci r17,-58
 3149 15de 2540      		sbci r18,5
 3150 15e0 3109      		sbc r19,__zero_reg__
 3151 15e2 0A0D      		add r16,r10
 3152 15e4 1B1D      		adc r17,r11
 3153 15e6 2C1D      		adc r18,r12
 3154 15e8 3D1D      		adc r19,r13
 3155 15ea 2D96      		adiw r28,73-60
 3156 15ec CCAC      		ldd r12,Y+60
 3157 15ee DDAC      		ldd r13,Y+61
 3158 15f0 EEAC      		ldd r14,Y+62
 3159 15f2 FFAC      		ldd r15,Y+63
 3160 15f4 2D97      		sbiw r28,73-60
 3161 15f6 C424      		eor r12,r4
 3162 15f8 D524      		eor r13,r5
 3163 15fa E624      		eor r14,r6
 3164 15fc F724      		eor r15,r7
 3165 15fe C626      		eor r12,r22
 3166 1600 D726      		eor r13,r23
 3167 1602 E826      		eor r14,r24
 3168 1604 F926      		eor r15,r25
 3169 1606 0C0D      		add r16,r12
 3170 1608 1D1D      		adc r17,r13
 3171 160a 2E1D      		adc r18,r14
 3172 160c 3F1D      		adc r19,r15
  74:../freeRTOS750/lib_iinchip/md5.c **** 		a = ROTATE_LEFT (a, s);
 3174               	.LM78:
 3175 160e 6801      		movw r12,r16
 3176 1610 7901      		movw r14,r18
 3177 1612 44E0      		ldi r20,4
 3178               		1:
 3179 1614 CC0C      		lsl r12
 3180 1616 DD1C      		rol r13
 3181 1618 EE1C      		rol r14
 3182 161a FF1C      		rol r15
 3183 161c 4A95      		dec r20
 3184 161e 01F4      		brne 1b
 3185 1620 5CE1      		ldi r21,28
 3186               		1:
 3187 1622 3695      		lsr r19
 3188 1624 2795      		ror r18
 3189 1626 1795      		ror r17
 3190 1628 0795      		ror r16
 3191 162a 5A95      		dec r21
 3192 162c 01F4      		brne 1b
 3193 162e 0C29      		or r16,r12
 3194 1630 1D29      		or r17,r13
 3195 1632 2E29      		or r18,r14
 3196 1634 3F29      		or r19,r15
  75:../freeRTOS750/lib_iinchip/md5.c **** 		a += b;
 3198               	.LM79:
 3199 1636 060F      		add r16,r22
 3200 1638 171F      		adc r17,r23
 3201 163a 281F      		adc r18,r24
 3202 163c 391F      		adc r19,r25
 3203               	.LBE39:
 3204               	.LBE38:
 3205               	.LBB40:
 3206               	.LBB41:
  73:../freeRTOS750/lib_iinchip/md5.c **** 		a += H (b, c, d) + x + (uint32_t)(ac);
 3208               	.LM80:
 3209 163e A996      		adiw r28,101-60
 3210 1640 8CAC      		ldd r8,Y+60
 3211 1642 9DAC      		ldd r9,Y+61
 3212 1644 AEAC      		ldd r10,Y+62
 3213 1646 BFAC      		ldd r11,Y+63
 3214 1648 A997      		sbiw r28,101-60
 3215 164a FFE7      		ldi r31,127
 3216 164c 8F1A      		sub r8,r31
 3217 164e F9E0      		ldi r31,9
 3218 1650 9F0A      		sbc r9,r31
 3219 1652 FEE8      		ldi r31,-114
 3220 1654 AF0A      		sbc r10,r31
 3221 1656 F8E7      		ldi r31,120
 3222 1658 BF0A      		sbc r11,r31
 3223 165a 2D96      		adiw r28,73-60
 3224 165c CCAC      		ldd r12,Y+60
 3225 165e DDAC      		ldd r13,Y+61
 3226 1660 EEAC      		ldd r14,Y+62
 3227 1662 FFAC      		ldd r15,Y+63
 3228 1664 2D97      		sbiw r28,73-60
 3229 1666 8C0C      		add r8,r12
 3230 1668 9D1C      		adc r9,r13
 3231 166a AE1C      		adc r10,r14
 3232 166c BF1C      		adc r11,r15
 3233 166e 6B01      		movw r12,r22
 3234 1670 7C01      		movw r14,r24
 3235 1672 C424      		eor r12,r4
 3236 1674 D524      		eor r13,r5
 3237 1676 E624      		eor r14,r6
 3238 1678 F724      		eor r15,r7
 3239 167a C026      		eor r12,r16
 3240 167c D126      		eor r13,r17
 3241 167e E226      		eor r14,r18
 3242 1680 F326      		eor r15,r19
 3243 1682 8C0C      		add r8,r12
 3244 1684 9D1C      		adc r9,r13
 3245 1686 AE1C      		adc r10,r14
 3246 1688 BF1C      		adc r11,r15
  74:../freeRTOS750/lib_iinchip/md5.c **** 		a = ROTATE_LEFT (a, s);
 3248               	.LM81:
 3249 168a 7501      		movw r14,r10
 3250 168c 6401      		movw r12,r8
 3251 168e EBE0      		ldi r30,11
 3252               		1:
 3253 1690 CC0C      		lsl r12
 3254 1692 DD1C      		rol r13
 3255 1694 EE1C      		rol r14
 3256 1696 FF1C      		rol r15
 3257 1698 EA95      		dec r30
 3258 169a 01F4      		brne 1b
 3259 169c 2D96      		adiw r28,73-60
 3260 169e CCAE      		std Y+60,r12
 3261 16a0 DDAE      		std Y+61,r13
 3262 16a2 EEAE      		std Y+62,r14
 3263 16a4 FFAE      		std Y+63,r15
 3264 16a6 2D97      		sbiw r28,73-60
 3265 16a8 7501      		movw r14,r10
 3266 16aa 6401      		movw r12,r8
 3267 16ac F5E1      		ldi r31,21
 3268               		1:
 3269 16ae F694      		lsr r15
 3270 16b0 E794      		ror r14
 3271 16b2 D794      		ror r13
 3272 16b4 C794      		ror r12
 3273 16b6 FA95      		dec r31
 3274 16b8 01F4      		brne 1b
 3275 16ba 2D96      		adiw r28,73-60
 3276 16bc 8CAC      		ldd r8,Y+60
 3277 16be 9DAC      		ldd r9,Y+61
 3278 16c0 AEAC      		ldd r10,Y+62
 3279 16c2 BFAC      		ldd r11,Y+63
 3280 16c4 2D97      		sbiw r28,73-60
 3281 16c6 C828      		or r12,r8
 3282 16c8 D928      		or r13,r9
 3283 16ca EA28      		or r14,r10
 3284 16cc FB28      		or r15,r11
  75:../freeRTOS750/lib_iinchip/md5.c **** 		a += b;
 3286               	.LM82:
 3287 16ce C00E      		add r12,r16
 3288 16d0 D11E      		adc r13,r17
 3289 16d2 E21E      		adc r14,r18
 3290 16d4 F31E      		adc r15,r19
 3291 16d6 2596      		adiw r28,65-60
 3292 16d8 CCAE      		std Y+60,r12
 3293 16da DDAE      		std Y+61,r13
 3294 16dc EEAE      		std Y+62,r14
 3295 16de FFAE      		std Y+63,r15
 3296 16e0 2597      		sbiw r28,65-60
 3297               	.LBE41:
 3298               	.LBE40:
 3299               	.LBB42:
 3300               	.LBB43:
  73:../freeRTOS750/lib_iinchip/md5.c **** 		a += H (b, c, d) + x + (uint32_t)(ac);
 3302               	.LM83:
 3303 16e2 E196      		adiw r28,109-60
 3304 16e4 CCAC      		ldd r12,Y+60
 3305 16e6 DDAC      		ldd r13,Y+61
 3306 16e8 EEAC      		ldd r14,Y+62
 3307 16ea FFAC      		ldd r15,Y+63
 3308 16ec E197      		sbiw r28,109-60
 3309 16ee 4EED      		ldi r20,-34
 3310 16f0 C41A      		sub r12,r20
 3311 16f2 4EE9      		ldi r20,-98
 3312 16f4 D40A      		sbc r13,r20
 3313 16f6 42E6      		ldi r20,98
 3314 16f8 E40A      		sbc r14,r20
 3315 16fa 42E9      		ldi r20,-110
 3316 16fc F40A      		sbc r15,r20
 3317 16fe C40C      		add r12,r4
 3318 1700 D51C      		adc r13,r5
 3319 1702 E61C      		adc r14,r6
 3320 1704 F71C      		adc r15,r7
 3321 1706 2801      		movw r4,r16
 3322 1708 3901      		movw r6,r18
 3323 170a 4626      		eor r4,r22
 3324 170c 5726      		eor r5,r23
 3325 170e 6826      		eor r6,r24
 3326 1710 7926      		eor r7,r25
 3327 1712 2596      		adiw r28,65-60
 3328 1714 8CAC      		ldd r8,Y+60
 3329 1716 9DAC      		ldd r9,Y+61
 3330 1718 AEAC      		ldd r10,Y+62
 3331 171a BFAC      		ldd r11,Y+63
 3332 171c 2597      		sbiw r28,65-60
 3333 171e 4824      		eor r4,r8
 3334 1720 5924      		eor r5,r9
 3335 1722 6A24      		eor r6,r10
 3336 1724 7B24      		eor r7,r11
 3337 1726 C40C      		add r12,r4
 3338 1728 D51C      		adc r13,r5
 3339 172a E61C      		adc r14,r6
 3340 172c F71C      		adc r15,r7
  74:../freeRTOS750/lib_iinchip/md5.c **** 		a = ROTATE_LEFT (a, s);
 3342               	.LM84:
 3343 172e 5601      		movw r10,r12
 3344 1730 4701      		movw r8,r14
  75:../freeRTOS750/lib_iinchip/md5.c **** 		a += b;
 3346               	.LM85:
 3347 1732 2596      		adiw r28,65-60
 3348 1734 4CAC      		ldd r4,Y+60
 3349 1736 5DAC      		ldd r5,Y+61
 3350 1738 6EAC      		ldd r6,Y+62
 3351 173a 7FAC      		ldd r7,Y+63
 3352 173c 2597      		sbiw r28,65-60
 3353 173e 840C      		add r8,r4
 3354 1740 951C      		adc r9,r5
 3355 1742 A61C      		adc r10,r6
 3356 1744 B71C      		adc r11,r7
 3357               	.LBE43:
 3358               	.LBE42:
 3359               	.LBB44:
 3360               	.LBB45:
  73:../freeRTOS750/lib_iinchip/md5.c **** 		a += H (b, c, d) + x + (uint32_t)(ac);
 3362               	.LM86:
 3363 1746 ED96      		adiw r28,121-60
 3364 1748 4CAC      		ldd r4,Y+60
 3365 174a 5DAC      		ldd r5,Y+61
 3366 174c 6EAC      		ldd r6,Y+62
 3367 174e 7FAC      		ldd r7,Y+63
 3368 1750 ED97      		sbiw r28,121-60
 3369 1752 44EF      		ldi r20,-12
 3370 1754 441A      		sub r4,r20
 3371 1756 47EC      		ldi r20,-57
 3372 1758 540A      		sbc r5,r20
 3373 175a 4AE1      		ldi r20,26
 3374 175c 640A      		sbc r6,r20
 3375 175e 42E0      		ldi r20,2
 3376 1760 740A      		sbc r7,r20
 3377 1762 460E      		add r4,r22
 3378 1764 571E      		adc r5,r23
 3379 1766 681E      		adc r6,r24
 3380 1768 791E      		adc r7,r25
 3381 176a 2596      		adiw r28,65-60
 3382 176c CCAC      		ldd r12,Y+60
 3383 176e DDAC      		ldd r13,Y+61
 3384 1770 EEAC      		ldd r14,Y+62
 3385 1772 FFAC      		ldd r15,Y+63
 3386 1774 2597      		sbiw r28,65-60
 3387 1776 C026      		eor r12,r16
 3388 1778 D126      		eor r13,r17
 3389 177a E226      		eor r14,r18
 3390 177c F326      		eor r15,r19
 3391 177e C824      		eor r12,r8
 3392 1780 D924      		eor r13,r9
 3393 1782 EA24      		eor r14,r10
 3394 1784 FB24      		eor r15,r11
 3395 1786 4C0C      		add r4,r12
 3396 1788 5D1C      		adc r5,r13
 3397 178a 6E1C      		adc r6,r14
 3398 178c 7F1C      		adc r7,r15
  74:../freeRTOS750/lib_iinchip/md5.c **** 		a = ROTATE_LEFT (a, s);
 3400               	.LM87:
 3401 178e 7301      		movw r14,r6
 3402 1790 6201      		movw r12,r4
 3403 1792 A7E1      		ldi r26,23
 3404               		1:
 3405 1794 CC0C      		lsl r12
 3406 1796 DD1C      		rol r13
 3407 1798 EE1C      		rol r14
 3408 179a FF1C      		rol r15
 3409 179c AA95      		dec r26
 3410 179e 01F4      		brne 1b
 3411 17a0 B9E0      		ldi r27,9
 3412               		1:
 3413 17a2 7694      		lsr r7
 3414 17a4 6794      		ror r6
 3415 17a6 5794      		ror r5
 3416 17a8 4794      		ror r4
 3417 17aa BA95      		dec r27
 3418 17ac 01F4      		brne 1b
 3419 17ae 4C28      		or r4,r12
 3420 17b0 5D28      		or r5,r13
 3421 17b2 6E28      		or r6,r14
 3422 17b4 7F28      		or r7,r15
  75:../freeRTOS750/lib_iinchip/md5.c **** 		a += b;
 3424               	.LM88:
 3425 17b6 480C      		add r4,r8
 3426 17b8 591C      		adc r5,r9
 3427 17ba 6A1C      		adc r6,r10
 3428 17bc 7B1C      		adc r7,r11
 3429               	.LBE45:
 3430               	.LBE44:
 3431               	.LBB46:
 3432               	.LBB47:
  73:../freeRTOS750/lib_iinchip/md5.c **** 		a += H (b, c, d) + x + (uint32_t)(ac);
 3434               	.LM89:
 3435 17be 6196      		adiw r28,77-60
 3436 17c0 CCAC      		ldd r12,Y+60
 3437 17c2 DDAC      		ldd r13,Y+61
 3438 17c4 EEAC      		ldd r14,Y+62
 3439 17c6 FFAC      		ldd r15,Y+63
 3440 17c8 6197      		sbiw r28,77-60
 3441 17ca 5CEB      		ldi r21,-68
 3442 17cc C51A      		sub r12,r21
 3443 17ce 55E1      		ldi r21,21
 3444 17d0 D50A      		sbc r13,r21
 3445 17d2 51E4      		ldi r21,65
 3446 17d4 E50A      		sbc r14,r21
 3447 17d6 5BE5      		ldi r21,91
 3448 17d8 F50A      		sbc r15,r21
 3449 17da C00E      		add r12,r16
 3450 17dc D11E      		adc r13,r17
 3451 17de E21E      		adc r14,r18
 3452 17e0 F31E      		adc r15,r19
 3453 17e2 2596      		adiw r28,65-60
 3454 17e4 0CAD      		ldd r16,Y+60
 3455 17e6 1DAD      		ldd r17,Y+61
 3456 17e8 2EAD      		ldd r18,Y+62
 3457 17ea 3FAD      		ldd r19,Y+63
 3458 17ec 2597      		sbiw r28,65-60
 3459 17ee 0825      		eor r16,r8
 3460 17f0 1925      		eor r17,r9
 3461 17f2 2A25      		eor r18,r10
 3462 17f4 3B25      		eor r19,r11
 3463 17f6 0425      		eor r16,r4
 3464 17f8 1525      		eor r17,r5
 3465 17fa 2625      		eor r18,r6
 3466 17fc 3725      		eor r19,r7
 3467 17fe C00E      		add r12,r16
 3468 1800 D11E      		adc r13,r17
 3469 1802 E21E      		adc r14,r18
 3470 1804 F31E      		adc r15,r19
  74:../freeRTOS750/lib_iinchip/md5.c **** 		a = ROTATE_LEFT (a, s);
 3472               	.LM90:
 3473 1806 9701      		movw r18,r14
 3474 1808 8601      		movw r16,r12
 3475 180a 84E0      		ldi r24,4
 3476               		1:
 3477 180c 000F      		lsl r16
 3478 180e 111F      		rol r17
 3479 1810 221F      		rol r18
 3480 1812 331F      		rol r19
 3481 1814 8A95      		dec r24
 3482 1816 01F4      		brne 1b
 3483 1818 9CE1      		ldi r25,28
 3484               		1:
 3485 181a F694      		lsr r15
 3486 181c E794      		ror r14
 3487 181e D794      		ror r13
 3488 1820 C794      		ror r12
 3489 1822 9A95      		dec r25
 3490 1824 01F4      		brne 1b
 3491 1826 C02A      		or r12,r16
 3492 1828 D12A      		or r13,r17
 3493 182a E22A      		or r14,r18
 3494 182c F32A      		or r15,r19
  75:../freeRTOS750/lib_iinchip/md5.c **** 		a += b;
 3496               	.LM91:
 3497 182e C40C      		add r12,r4
 3498 1830 D51C      		adc r13,r5
 3499 1832 E61C      		adc r14,r6
 3500 1834 F71C      		adc r15,r7
 3501               	.LBE47:
 3502               	.LBE46:
 3503               	.LBB48:
 3504               	.LBB49:
  73:../freeRTOS750/lib_iinchip/md5.c **** 		a += H (b, c, d) + x + (uint32_t)(ac);
 3506               	.LM92:
 3507 1836 CF57      		subi r28,lo8(-129)
 3508 1838 DF4F      		sbci r29,hi8(-129)
 3509 183a 0881      		ld r16,Y
 3510 183c 1981      		ldd r17,Y+1
 3511 183e 2A81      		ldd r18,Y+2
 3512 1840 3B81      		ldd r19,Y+3
 3513 1842 C158      		subi r28,lo8(129)
 3514 1844 D040      		sbci r29,hi8(129)
 3515 1846 0755      		subi r16,87
 3516 1848 1043      		sbci r17,48
 3517 184a 2142      		sbci r18,33
 3518 184c 344B      		sbci r19,-76
 3519 184e 2596      		adiw r28,65-60
 3520 1850 8CAD      		ldd r24,Y+60
 3521 1852 9DAD      		ldd r25,Y+61
 3522 1854 AEAD      		ldd r26,Y+62
 3523 1856 BFAD      		ldd r27,Y+63
 3524 1858 2597      		sbiw r28,65-60
 3525 185a 080F      		add r16,r24
 3526 185c 191F      		adc r17,r25
 3527 185e 2A1F      		adc r18,r26
 3528 1860 3B1F      		adc r19,r27
 3529 1862 B301      		movw r22,r6
 3530 1864 A201      		movw r20,r4
 3531 1866 4825      		eor r20,r8
 3532 1868 5925      		eor r21,r9
 3533 186a 6A25      		eor r22,r10
 3534 186c 7B25      		eor r23,r11
 3535 186e 4C25      		eor r20,r12
 3536 1870 5D25      		eor r21,r13
 3537 1872 6E25      		eor r22,r14
 3538 1874 7F25      		eor r23,r15
 3539 1876 040F      		add r16,r20
 3540 1878 151F      		adc r17,r21
 3541 187a 261F      		adc r18,r22
 3542 187c 371F      		adc r19,r23
  74:../freeRTOS750/lib_iinchip/md5.c **** 		a = ROTATE_LEFT (a, s);
 3544               	.LM93:
 3545 187e B901      		movw r22,r18
 3546 1880 A801      		movw r20,r16
 3547 1882 EBE0      		ldi r30,11
 3548               		1:
 3549 1884 440F      		lsl r20
 3550 1886 551F      		rol r21
 3551 1888 661F      		rol r22
 3552 188a 771F      		rol r23
 3553 188c EA95      		dec r30
 3554 188e 01F4      		brne 1b
 3555 1890 F5E1      		ldi r31,21
 3556               		1:
 3557 1892 3695      		lsr r19
 3558 1894 2795      		ror r18
 3559 1896 1795      		ror r17
 3560 1898 0795      		ror r16
 3561 189a FA95      		dec r31
 3562 189c 01F4      		brne 1b
 3563 189e 042B      		or r16,r20
 3564 18a0 152B      		or r17,r21
 3565 18a2 262B      		or r18,r22
 3566 18a4 372B      		or r19,r23
  75:../freeRTOS750/lib_iinchip/md5.c **** 		a += b;
 3568               	.LM94:
 3569 18a6 0C0D      		add r16,r12
 3570 18a8 1D1D      		adc r17,r13
 3571 18aa 2E1D      		adc r18,r14
 3572 18ac 3F1D      		adc r19,r15
 3573               	.LBE49:
 3574               	.LBE48:
 3575               	.LBB50:
 3576               	.LBB51:
  73:../freeRTOS750/lib_iinchip/md5.c **** 		a += H (b, c, d) + x + (uint32_t)(ac);
 3578               	.LM95:
 3579 18ae 6996      		adiw r28,85-60
 3580 18b0 4CAD      		ldd r20,Y+60
 3581 18b2 5DAD      		ldd r21,Y+61
 3582 18b4 6EAD      		ldd r22,Y+62
 3583 18b6 7FAD      		ldd r23,Y+63
 3584 18b8 6997      		sbiw r28,85-60
 3585 18ba 405A      		subi r20,-96
 3586 18bc 544B      		sbci r21,-76
 3587 18be 6444      		sbci r22,68
 3588 18c0 7940      		sbci r23,9
 3589 18c2 480D      		add r20,r8
 3590 18c4 591D      		adc r21,r9
 3591 18c6 6A1D      		adc r22,r10
 3592 18c8 7B1D      		adc r23,r11
 3593 18ca D701      		movw r26,r14
 3594 18cc C601      		movw r24,r12
 3595 18ce 8425      		eor r24,r4
 3596 18d0 9525      		eor r25,r5
 3597 18d2 A625      		eor r26,r6
 3598 18d4 B725      		eor r27,r7
 3599 18d6 8027      		eor r24,r16
 3600 18d8 9127      		eor r25,r17
 3601 18da A227      		eor r26,r18
 3602 18dc B327      		eor r27,r19
 3603 18de 480F      		add r20,r24
 3604 18e0 591F      		adc r21,r25
 3605 18e2 6A1F      		adc r22,r26
 3606 18e4 7B1F      		adc r23,r27
  74:../freeRTOS750/lib_iinchip/md5.c **** 		a = ROTATE_LEFT (a, s);
 3608               	.LM96:
 3609 18e6 DA01      		movw r26,r20
 3610 18e8 AB01      		movw r20,r22
 3611 18ea BD01      		movw r22,r26
  75:../freeRTOS750/lib_iinchip/md5.c **** 		a += b;
 3613               	.LM97:
 3614 18ec 400F      		add r20,r16
 3615 18ee 511F      		adc r21,r17
 3616 18f0 621F      		adc r22,r18
 3617 18f2 731F      		adc r23,r19
 3618               	.LBE51:
 3619               	.LBE50:
 3620               	.LBB52:
 3621               	.LBB53:
  73:../freeRTOS750/lib_iinchip/md5.c **** 		a += H (b, c, d) + x + (uint32_t)(ac);
 3623               	.LM98:
 3624 18f4 C757      		subi r28,lo8(-137)
 3625 18f6 DF4F      		sbci r29,hi8(-137)
 3626 18f8 8881      		ld r24,Y
 3627 18fa 9981      		ldd r25,Y+1
 3628 18fc AA81      		ldd r26,Y+2
 3629 18fe BB81      		ldd r27,Y+3
 3630 1900 C958      		subi r28,lo8(137)
 3631 1902 D040      		sbci r29,hi8(137)
 3632 1904 8059      		subi r24,-112
 3633 1906 9344      		sbci r25,67
 3634 1908 A044      		sbci r26,64
 3635 190a B144      		sbci r27,65
 3636 190c 840D      		add r24,r4
 3637 190e 951D      		adc r25,r5
 3638 1910 A61D      		adc r26,r6
 3639 1912 B71D      		adc r27,r7
 3640 1914 2801      		movw r4,r16
 3641 1916 3901      		movw r6,r18
 3642 1918 4C24      		eor r4,r12
 3643 191a 5D24      		eor r5,r13
 3644 191c 6E24      		eor r6,r14
 3645 191e 7F24      		eor r7,r15
 3646 1920 4426      		eor r4,r20
 3647 1922 5526      		eor r5,r21
 3648 1924 6626      		eor r6,r22
 3649 1926 7726      		eor r7,r23
 3650 1928 840D      		add r24,r4
 3651 192a 951D      		adc r25,r5
 3652 192c A61D      		adc r26,r6
 3653 192e B71D      		adc r27,r7
  74:../freeRTOS750/lib_iinchip/md5.c **** 		a = ROTATE_LEFT (a, s);
 3655               	.LM99:
 3656 1930 2C01      		movw r4,r24
 3657 1932 3D01      		movw r6,r26
 3658 1934 E7E1      		ldi r30,23
 3659               		1:
 3660 1936 440C      		lsl r4
 3661 1938 551C      		rol r5
 3662 193a 661C      		rol r6
 3663 193c 771C      		rol r7
 3664 193e EA95      		dec r30
 3665 1940 01F4      		brne 1b
 3666 1942 F9E0      		ldi r31,9
 3667               		1:
 3668 1944 B695      		lsr r27
 3669 1946 A795      		ror r26
 3670 1948 9795      		ror r25
 3671 194a 8795      		ror r24
 3672 194c FA95      		dec r31
 3673 194e 01F4      		brne 1b
 3674 1950 8429      		or r24,r4
 3675 1952 9529      		or r25,r5
 3676 1954 A629      		or r26,r6
 3677 1956 B729      		or r27,r7
  75:../freeRTOS750/lib_iinchip/md5.c **** 		a += b;
 3679               	.LM100:
 3680 1958 840F      		add r24,r20
 3681 195a 951F      		adc r25,r21
 3682 195c A61F      		adc r26,r22
 3683 195e B71F      		adc r27,r23
 3684               	.LBE53:
 3685               	.LBE52:
 3686               	.LBB54:
 3687               	.LBB55:
  73:../freeRTOS750/lib_iinchip/md5.c **** 		a += H (b, c, d) + x + (uint32_t)(ac);
 3689               	.LM101:
 3690 1960 E996      		adiw r28,117-60
 3691 1962 4CAC      		ldd r4,Y+60
 3692 1964 5DAC      		ldd r5,Y+61
 3693 1966 6EAC      		ldd r6,Y+62
 3694 1968 7FAC      		ldd r7,Y+63
 3695 196a E997      		sbiw r28,117-60
 3696 196c EAE3      		ldi r30,58
 3697 196e 4E1A      		sub r4,r30
 3698 1970 E1E8      		ldi r30,-127
 3699 1972 5E0A      		sbc r5,r30
 3700 1974 E4E6      		ldi r30,100
 3701 1976 6E0A      		sbc r6,r30
 3702 1978 E7ED      		ldi r30,-41
 3703 197a 7E0A      		sbc r7,r30
 3704 197c 4C0C      		add r4,r12
 3705 197e 5D1C      		adc r5,r13
 3706 1980 6E1C      		adc r6,r14
 3707 1982 7F1C      		adc r7,r15
 3708 1984 6A01      		movw r12,r20
 3709 1986 7B01      		movw r14,r22
 3710 1988 C026      		eor r12,r16
 3711 198a D126      		eor r13,r17
 3712 198c E226      		eor r14,r18
 3713 198e F326      		eor r15,r19
 3714 1990 C826      		eor r12,r24
 3715 1992 D926      		eor r13,r25
 3716 1994 EA26      		eor r14,r26
 3717 1996 FB26      		eor r15,r27
 3718 1998 4C0C      		add r4,r12
 3719 199a 5D1C      		adc r5,r13
 3720 199c 6E1C      		adc r6,r14
 3721 199e 7F1C      		adc r7,r15
  74:../freeRTOS750/lib_iinchip/md5.c **** 		a = ROTATE_LEFT (a, s);
 3723               	.LM102:
 3724 19a0 7301      		movw r14,r6
 3725 19a2 6201      		movw r12,r4
 3726 19a4 E4E0      		ldi r30,4
 3727               		1:
 3728 19a6 CC0C      		lsl r12
 3729 19a8 DD1C      		rol r13
 3730 19aa EE1C      		rol r14
 3731 19ac FF1C      		rol r15
 3732 19ae EA95      		dec r30
 3733 19b0 01F4      		brne 1b
 3734 19b2 5301      		movw r10,r6
 3735 19b4 4201      		movw r8,r4
 3736 19b6 FCE1      		ldi r31,28
 3737               		1:
 3738 19b8 B694      		lsr r11
 3739 19ba A794      		ror r10
 3740 19bc 9794      		ror r9
 3741 19be 8794      		ror r8
 3742 19c0 FA95      		dec r31
 3743 19c2 01F4      		brne 1b
 3744 19c4 8C28      		or r8,r12
 3745 19c6 9D28      		or r9,r13
 3746 19c8 AE28      		or r10,r14
 3747 19ca BF28      		or r11,r15
  75:../freeRTOS750/lib_iinchip/md5.c **** 		a += b;
 3749               	.LM103:
 3750 19cc 880E      		add r8,r24
 3751 19ce 991E      		adc r9,r25
 3752 19d0 AA1E      		adc r10,r26
 3753 19d2 BB1E      		adc r11,r27
 3754               	.LBE55:
 3755               	.LBE54:
 3756               	.LBB56:
 3757               	.LBB57:
  73:../freeRTOS750/lib_iinchip/md5.c **** 		a += H (b, c, d) + x + (uint32_t)(ac);
 3759               	.LM104:
 3760 19d4 2996      		adiw r28,69-60
 3761 19d6 4CAC      		ldd r4,Y+60
 3762 19d8 5DAC      		ldd r5,Y+61
 3763 19da 6EAC      		ldd r6,Y+62
 3764 19dc 7FAC      		ldd r7,Y+63
 3765 19de 2997      		sbiw r28,69-60
 3766 19e0 F6E0      		ldi r31,6
 3767 19e2 4F1A      		sub r4,r31
 3768 19e4 F8ED      		ldi r31,-40
 3769 19e6 5F0A      		sbc r5,r31
 3770 19e8 FEE5      		ldi r31,94
 3771 19ea 6F0A      		sbc r6,r31
 3772 19ec F5E1      		ldi r31,21
 3773 19ee 7F0A      		sbc r7,r31
 3774 19f0 400E      		add r4,r16
 3775 19f2 511E      		adc r5,r17
 3776 19f4 621E      		adc r6,r18
 3777 19f6 731E      		adc r7,r19
 3778 19f8 8C01      		movw r16,r24
 3779 19fa 9D01      		movw r18,r26
 3780 19fc 0427      		eor r16,r20
 3781 19fe 1527      		eor r17,r21
 3782 1a00 2627      		eor r18,r22
 3783 1a02 3727      		eor r19,r23
 3784 1a04 0825      		eor r16,r8
 3785 1a06 1925      		eor r17,r9
 3786 1a08 2A25      		eor r18,r10
 3787 1a0a 3B25      		eor r19,r11
 3788 1a0c 400E      		add r4,r16
 3789 1a0e 511E      		adc r5,r17
 3790 1a10 621E      		adc r6,r18
 3791 1a12 731E      		adc r7,r19
  74:../freeRTOS750/lib_iinchip/md5.c **** 		a = ROTATE_LEFT (a, s);
 3793               	.LM105:
 3794 1a14 9301      		movw r18,r6
 3795 1a16 8201      		movw r16,r4
 3796 1a18 EBE0      		ldi r30,11
 3797               		1:
 3798 1a1a 000F      		lsl r16
 3799 1a1c 111F      		rol r17
 3800 1a1e 221F      		rol r18
 3801 1a20 331F      		rol r19
 3802 1a22 EA95      		dec r30
 3803 1a24 01F4      		brne 1b
 3804 1a26 F5E1      		ldi r31,21
 3805               		1:
 3806 1a28 7694      		lsr r7
 3807 1a2a 6794      		ror r6
 3808 1a2c 5794      		ror r5
 3809 1a2e 4794      		ror r4
 3810 1a30 FA95      		dec r31
 3811 1a32 01F4      		brne 1b
 3812 1a34 402A      		or r4,r16
 3813 1a36 512A      		or r5,r17
 3814 1a38 622A      		or r6,r18
 3815 1a3a 732A      		or r7,r19
  75:../freeRTOS750/lib_iinchip/md5.c **** 		a += b;
 3817               	.LM106:
 3818 1a3c 480C      		add r4,r8
 3819 1a3e 591C      		adc r5,r9
 3820 1a40 6A1C      		adc r6,r10
 3821 1a42 7B1C      		adc r7,r11
 3822               	.LBE57:
 3823               	.LBE56:
 3824               	.LBB58:
 3825               	.LBB59:
  73:../freeRTOS750/lib_iinchip/md5.c **** 		a += H (b, c, d) + x + (uint32_t)(ac);
 3827               	.LM107:
 3828 1a44 6596      		adiw r28,81-60
 3829 1a46 CCAC      		ldd r12,Y+60
 3830 1a48 DDAC      		ldd r13,Y+61
 3831 1a4a EEAC      		ldd r14,Y+62
 3832 1a4c FFAC      		ldd r15,Y+63
 3833 1a4e 6597      		sbiw r28,81-60
 3834 1a50 2BE7      		ldi r18,123
 3835 1a52 C21A      		sub r12,r18
 3836 1a54 2FEC      		ldi r18,-49
 3837 1a56 D20A      		sbc r13,r18
 3838 1a58 20E1      		ldi r18,16
 3839 1a5a E20A      		sbc r14,r18
 3840 1a5c 2BE2      		ldi r18,43
 3841 1a5e F20A      		sbc r15,r18
 3842 1a60 C40E      		add r12,r20
 3843 1a62 D51E      		adc r13,r21
 3844 1a64 E61E      		adc r14,r22
 3845 1a66 F71E      		adc r15,r23
 3846 1a68 B501      		movw r22,r10
 3847 1a6a A401      		movw r20,r8
 3848 1a6c 4827      		eor r20,r24
 3849 1a6e 5927      		eor r21,r25
 3850 1a70 6A27      		eor r22,r26
 3851 1a72 7B27      		eor r23,r27
 3852 1a74 4425      		eor r20,r4
 3853 1a76 5525      		eor r21,r5
 3854 1a78 6625      		eor r22,r6
 3855 1a7a 7725      		eor r23,r7
 3856 1a7c C40E      		add r12,r20
 3857 1a7e D51E      		adc r13,r21
 3858 1a80 E61E      		adc r14,r22
 3859 1a82 F71E      		adc r15,r23
  74:../freeRTOS750/lib_iinchip/md5.c **** 		a = ROTATE_LEFT (a, s);
 3861               	.LM108:
 3862 1a84 A601      		movw r20,r12
 3863 1a86 6701      		movw r12,r14
 3864 1a88 7A01      		movw r14,r20
  75:../freeRTOS750/lib_iinchip/md5.c **** 		a += b;
 3866               	.LM109:
 3867 1a8a C40C      		add r12,r4
 3868 1a8c D51C      		adc r13,r5
 3869 1a8e E61C      		adc r14,r6
 3870 1a90 F71C      		adc r15,r7
 3871               	.LBE59:
 3872               	.LBE58:
 3873               	.LBB60:
 3874               	.LBB61:
  73:../freeRTOS750/lib_iinchip/md5.c **** 		a += H (b, c, d) + x + (uint32_t)(ac);
 3876               	.LM110:
 3877 1a92 A596      		adiw r28,97-60
 3878 1a94 0CAD      		ldd r16,Y+60
 3879 1a96 1DAD      		ldd r17,Y+61
 3880 1a98 2EAD      		ldd r18,Y+62
 3881 1a9a 3FAD      		ldd r19,Y+63
 3882 1a9c A597      		sbiw r28,97-60
 3883 1a9e 0B5F      		subi r16,-5
 3884 1aa0 124E      		sbci r17,-30
 3885 1aa2 2747      		sbci r18,119
 3886 1aa4 3B4F      		sbci r19,-5
 3887 1aa6 080F      		add r16,r24
 3888 1aa8 191F      		adc r17,r25
 3889 1aaa 2A1F      		adc r18,r26
 3890 1aac 3B1F      		adc r19,r27
 3891 1aae D301      		movw r26,r6
 3892 1ab0 C201      		movw r24,r4
 3893 1ab2 8825      		eor r24,r8
 3894 1ab4 9925      		eor r25,r9
 3895 1ab6 AA25      		eor r26,r10
 3896 1ab8 BB25      		eor r27,r11
 3897 1aba 8C25      		eor r24,r12
 3898 1abc 9D25      		eor r25,r13
 3899 1abe AE25      		eor r26,r14
 3900 1ac0 BF25      		eor r27,r15
 3901 1ac2 080F      		add r16,r24
 3902 1ac4 191F      		adc r17,r25
 3903 1ac6 2A1F      		adc r18,r26
 3904 1ac8 3B1F      		adc r19,r27
  74:../freeRTOS750/lib_iinchip/md5.c **** 		a = ROTATE_LEFT (a, s);
 3906               	.LM111:
 3907 1aca D901      		movw r26,r18
 3908 1acc C801      		movw r24,r16
 3909 1ace 47E1      		ldi r20,23
 3910               		1:
 3911 1ad0 880F      		lsl r24
 3912 1ad2 991F      		rol r25
 3913 1ad4 AA1F      		rol r26
 3914 1ad6 BB1F      		rol r27
 3915 1ad8 4A95      		dec r20
 3916 1ada 01F4      		brne 1b
 3917 1adc 59E0      		ldi r21,9
 3918               		1:
 3919 1ade 3695      		lsr r19
 3920 1ae0 2795      		ror r18
 3921 1ae2 1795      		ror r17
 3922 1ae4 0795      		ror r16
 3923 1ae6 5A95      		dec r21
 3924 1ae8 01F4      		brne 1b
 3925 1aea 082B      		or r16,r24
 3926 1aec 192B      		or r17,r25
 3927 1aee 2A2B      		or r18,r26
 3928 1af0 3B2B      		or r19,r27
  75:../freeRTOS750/lib_iinchip/md5.c **** 		a += b;
 3930               	.LM112:
 3931 1af2 0C0D      		add r16,r12
 3932 1af4 1D1D      		adc r17,r13
 3933 1af6 2E1D      		adc r18,r14
 3934 1af8 3F1D      		adc r19,r15
 3935               	.LBE61:
 3936               	.LBE60:
 3937               	.LBB62:
 3938               	.LBB63:
  73:../freeRTOS750/lib_iinchip/md5.c **** 		a += H (b, c, d) + x + (uint32_t)(ac);
 3940               	.LM113:
 3941 1afa AD96      		adiw r28,105-60
 3942 1afc 8CAD      		ldd r24,Y+60
 3943 1afe 9DAD      		ldd r25,Y+61
 3944 1b00 AEAD      		ldd r26,Y+62
 3945 1b02 BFAD      		ldd r27,Y+63
 3946 1b04 AD97      		sbiw r28,105-60
 3947 1b06 875C      		subi r24,-57
 3948 1b08 9F42      		sbci r25,47
 3949 1b0a AB42      		sbci r26,43
 3950 1b0c B642      		sbci r27,38
 3951 1b0e 880D      		add r24,r8
 3952 1b10 991D      		adc r25,r9
 3953 1b12 AA1D      		adc r26,r10
 3954 1b14 BB1D      		adc r27,r11
 3955 1b16 B701      		movw r22,r14
 3956 1b18 A601      		movw r20,r12
 3957 1b1a 4425      		eor r20,r4
 3958 1b1c 5525      		eor r21,r5
 3959 1b1e 6625      		eor r22,r6
 3960 1b20 7725      		eor r23,r7
 3961 1b22 4027      		eor r20,r16
 3962 1b24 5127      		eor r21,r17
 3963 1b26 6227      		eor r22,r18
 3964 1b28 7327      		eor r23,r19
 3965 1b2a 840F      		add r24,r20
 3966 1b2c 951F      		adc r25,r21
 3967 1b2e A61F      		adc r26,r22
 3968 1b30 B71F      		adc r27,r23
  74:../freeRTOS750/lib_iinchip/md5.c **** 		a = ROTATE_LEFT (a, s);
 3970               	.LM114:
 3971 1b32 4C01      		movw r8,r24
 3972 1b34 5D01      		movw r10,r26
 3973 1b36 64E0      		ldi r22,4
 3974               		1:
 3975 1b38 880C      		lsl r8
 3976 1b3a 991C      		rol r9
 3977 1b3c AA1C      		rol r10
 3978 1b3e BB1C      		rol r11
 3979 1b40 6A95      		dec r22
 3980 1b42 01F4      		brne 1b
 3981 1b44 BC01      		movw r22,r24
 3982 1b46 CD01      		movw r24,r26
 3983 1b48 ECE1      		ldi r30,28
 3984               		1:
 3985 1b4a 9695      		lsr r25
 3986 1b4c 8795      		ror r24
 3987 1b4e 7795      		ror r23
 3988 1b50 6795      		ror r22
 3989 1b52 EA95      		dec r30
 3990 1b54 01F4      		brne 1b
 3991 1b56 6829      		or r22,r8
 3992 1b58 7929      		or r23,r9
 3993 1b5a 8A29      		or r24,r10
 3994 1b5c 9B29      		or r25,r11
  75:../freeRTOS750/lib_iinchip/md5.c **** 		a += b;
 3996               	.LM115:
 3997 1b5e 600F      		add r22,r16
 3998 1b60 711F      		adc r23,r17
 3999 1b62 821F      		adc r24,r18
 4000 1b64 931F      		adc r25,r19
 4001               	.LBE63:
 4002               	.LBE62:
 4003               	.LBB64:
 4004               	.LBB65:
  73:../freeRTOS750/lib_iinchip/md5.c **** 		a += H (b, c, d) + x + (uint32_t)(ac);
 4006               	.LM116:
 4007 1b66 E596      		adiw r28,113-60
 4008 1b68 8CAC      		ldd r8,Y+60
 4009 1b6a 9DAC      		ldd r9,Y+61
 4010 1b6c AEAC      		ldd r10,Y+62
 4011 1b6e BFAC      		ldd r11,Y+63
 4012 1b70 E597      		sbiw r28,113-60
 4013 1b72 5BE1      		ldi r21,27
 4014 1b74 851A      		sub r8,r21
 4015 1b76 56E6      		ldi r21,102
 4016 1b78 950A      		sbc r9,r21
 4017 1b7a 54E2      		ldi r21,36
 4018 1b7c A50A      		sbc r10,r21
 4019 1b7e 59E1      		ldi r21,25
 4020 1b80 B50A      		sbc r11,r21
 4021 1b82 840C      		add r8,r4
 4022 1b84 951C      		adc r9,r5
 4023 1b86 A61C      		adc r10,r6
 4024 1b88 B71C      		adc r11,r7
 4025 1b8a 2801      		movw r4,r16
 4026 1b8c 3901      		movw r6,r18
 4027 1b8e 4C24      		eor r4,r12
 4028 1b90 5D24      		eor r5,r13
 4029 1b92 6E24      		eor r6,r14
 4030 1b94 7F24      		eor r7,r15
 4031 1b96 4626      		eor r4,r22
 4032 1b98 5726      		eor r5,r23
 4033 1b9a 6826      		eor r6,r24
 4034 1b9c 7926      		eor r7,r25
 4035 1b9e 840C      		add r8,r4
 4036 1ba0 951C      		adc r9,r5
 4037 1ba2 A61C      		adc r10,r6
 4038 1ba4 B71C      		adc r11,r7
  74:../freeRTOS750/lib_iinchip/md5.c **** 		a = ROTATE_LEFT (a, s);
 4040               	.LM117:
 4041 1ba6 2401      		movw r4,r8
 4042 1ba8 3501      		movw r6,r10
 4043 1baa FBE0      		ldi r31,11
 4044               		1:
 4045 1bac 440C      		lsl r4
 4046 1bae 551C      		rol r5
 4047 1bb0 661C      		rol r6
 4048 1bb2 771C      		rol r7
 4049 1bb4 FA95      		dec r31
 4050 1bb6 01F4      		brne 1b
 4051 1bb8 2D96      		adiw r28,73-60
 4052 1bba 4CAE      		std Y+60,r4
 4053 1bbc 5DAE      		std Y+61,r5
 4054 1bbe 6EAE      		std Y+62,r6
 4055 1bc0 7FAE      		std Y+63,r7
 4056 1bc2 2D97      		sbiw r28,73-60
 4057 1bc4 2401      		movw r4,r8
 4058 1bc6 3501      		movw r6,r10
 4059 1bc8 A5E1      		ldi r26,21
 4060               		1:
 4061 1bca 7694      		lsr r7
 4062 1bcc 6794      		ror r6
 4063 1bce 5794      		ror r5
 4064 1bd0 4794      		ror r4
 4065 1bd2 AA95      		dec r26
 4066 1bd4 01F4      		brne 1b
 4067 1bd6 2D96      		adiw r28,73-60
 4068 1bd8 8CAC      		ldd r8,Y+60
 4069 1bda 9DAC      		ldd r9,Y+61
 4070 1bdc AEAC      		ldd r10,Y+62
 4071 1bde BFAC      		ldd r11,Y+63
 4072 1be0 2D97      		sbiw r28,73-60
 4073 1be2 4828      		or r4,r8
 4074 1be4 5928      		or r5,r9
 4075 1be6 6A28      		or r6,r10
 4076 1be8 7B28      		or r7,r11
  75:../freeRTOS750/lib_iinchip/md5.c **** 		a += b;
 4078               	.LM118:
 4079 1bea 460E      		add r4,r22
 4080 1bec 571E      		adc r5,r23
 4081 1bee 681E      		adc r6,r24
 4082 1bf0 791E      		adc r7,r25
 4083 1bf2 2596      		adiw r28,65-60
 4084 1bf4 4CAE      		std Y+60,r4
 4085 1bf6 5DAE      		std Y+61,r5
 4086 1bf8 6EAE      		std Y+62,r6
 4087 1bfa 7FAE      		std Y+63,r7
 4088 1bfc 2597      		sbiw r28,65-60
 4089               	.LBE65:
 4090               	.LBE64:
 4091               	.LBB66:
 4092               	.LBB67:
  73:../freeRTOS750/lib_iinchip/md5.c **** 		a += H (b, c, d) + x + (uint32_t)(ac);
 4094               	.LM119:
 4095 1bfe C358      		subi r28,lo8(-125)
 4096 1c00 DF4F      		sbci r29,hi8(-125)
 4097 1c02 4880      		ld r4,Y
 4098 1c04 5980      		ldd r5,Y+1
 4099 1c06 6A80      		ldd r6,Y+2
 4100 1c08 7B80      		ldd r7,Y+3
 4101 1c0a CD57      		subi r28,lo8(125)
 4102 1c0c D040      		sbci r29,hi8(125)
 4103 1c0e 48E0      		ldi r20,8
 4104 1c10 441A      		sub r4,r20
 4105 1c12 43E8      		ldi r20,-125
 4106 1c14 540A      		sbc r5,r20
 4107 1c16 4DE5      		ldi r20,93
 4108 1c18 640A      		sbc r6,r20
 4109 1c1a 40EE      		ldi r20,-32
 4110 1c1c 740A      		sbc r7,r20
 4111 1c1e 4C0C      		add r4,r12
 4112 1c20 5D1C      		adc r5,r13
 4113 1c22 6E1C      		adc r6,r14
 4114 1c24 7F1C      		adc r7,r15
 4115 1c26 6B01      		movw r12,r22
 4116 1c28 7C01      		movw r14,r24
 4117 1c2a C026      		eor r12,r16
 4118 1c2c D126      		eor r13,r17
 4119 1c2e E226      		eor r14,r18
 4120 1c30 F326      		eor r15,r19
 4121 1c32 2596      		adiw r28,65-60
 4122 1c34 8CAC      		ldd r8,Y+60
 4123 1c36 9DAC      		ldd r9,Y+61
 4124 1c38 AEAC      		ldd r10,Y+62
 4125 1c3a BFAC      		ldd r11,Y+63
 4126 1c3c 2597      		sbiw r28,65-60
 4127 1c3e C824      		eor r12,r8
 4128 1c40 D924      		eor r13,r9
 4129 1c42 EA24      		eor r14,r10
 4130 1c44 FB24      		eor r15,r11
 4131 1c46 4C0C      		add r4,r12
 4132 1c48 5D1C      		adc r5,r13
 4133 1c4a 6E1C      		adc r6,r14
 4134 1c4c 7F1C      		adc r7,r15
  74:../freeRTOS750/lib_iinchip/md5.c **** 		a = ROTATE_LEFT (a, s);
 4136               	.LM120:
 4137 1c4e 5201      		movw r10,r4
 4138 1c50 4301      		movw r8,r6
  75:../freeRTOS750/lib_iinchip/md5.c **** 		a += b;
 4140               	.LM121:
 4141 1c52 2596      		adiw r28,65-60
 4142 1c54 4CAC      		ldd r4,Y+60
 4143 1c56 5DAC      		ldd r5,Y+61
 4144 1c58 6EAC      		ldd r6,Y+62
 4145 1c5a 7FAC      		ldd r7,Y+63
 4146 1c5c 2597      		sbiw r28,65-60
 4147 1c5e 840C      		add r8,r4
 4148 1c60 951C      		adc r9,r5
 4149 1c62 A61C      		adc r10,r6
 4150 1c64 B71C      		adc r11,r7
 4151 1c66 2D96      		adiw r28,73-60
 4152 1c68 8CAE      		std Y+60,r8
 4153 1c6a 9DAE      		std Y+61,r9
 4154 1c6c AEAE      		std Y+62,r10
 4155 1c6e BFAE      		std Y+63,r11
 4156 1c70 2D97      		sbiw r28,73-60
 4157               	.LBE67:
 4158               	.LBE66:
 4159               	.LBB68:
 4160               	.LBB69:
  73:../freeRTOS750/lib_iinchip/md5.c **** 		a += H (b, c, d) + x + (uint32_t)(ac);
 4162               	.LM122:
 4163 1c72 CB57      		subi r28,lo8(-133)
 4164 1c74 DF4F      		sbci r29,hi8(-133)
 4165 1c76 C880      		ld r12,Y
 4166 1c78 D980      		ldd r13,Y+1
 4167 1c7a EA80      		ldd r14,Y+2
 4168 1c7c FB80      		ldd r15,Y+3
 4169 1c7e C558      		subi r28,lo8(133)
 4170 1c80 D040      		sbci r29,hi8(133)
 4171 1c82 4BE9      		ldi r20,-101
 4172 1c84 C41A      		sub r12,r20
 4173 1c86 49EA      		ldi r20,-87
 4174 1c88 D40A      		sbc r13,r20
 4175 1c8a 43E5      		ldi r20,83
 4176 1c8c E40A      		sbc r14,r20
 4177 1c8e 4BE3      		ldi r20,59
 4178 1c90 F40A      		sbc r15,r20
 4179 1c92 C00E      		add r12,r16
 4180 1c94 D11E      		adc r13,r17
 4181 1c96 E21E      		adc r14,r18
 4182 1c98 F31E      		adc r15,r19
 4183 1c9a 9301      		movw r18,r6
 4184 1c9c 8201      		movw r16,r4
 4185 1c9e 0627      		eor r16,r22
 4186 1ca0 1727      		eor r17,r23
 4187 1ca2 2827      		eor r18,r24
 4188 1ca4 3927      		eor r19,r25
 4189 1ca6 0825      		eor r16,r8
 4190 1ca8 1925      		eor r17,r9
 4191 1caa 2A25      		eor r18,r10
 4192 1cac 3B25      		eor r19,r11
 4193 1cae C00E      		add r12,r16
 4194 1cb0 D11E      		adc r13,r17
 4195 1cb2 E21E      		adc r14,r18
 4196 1cb4 F31E      		adc r15,r19
  74:../freeRTOS750/lib_iinchip/md5.c **** 		a = ROTATE_LEFT (a, s);
 4198               	.LM123:
 4199 1cb6 9701      		movw r18,r14
 4200 1cb8 8601      		movw r16,r12
 4201 1cba B7E1      		ldi r27,23
 4202               		1:
 4203 1cbc 000F      		lsl r16
 4204 1cbe 111F      		rol r17
 4205 1cc0 221F      		rol r18
 4206 1cc2 331F      		rol r19
 4207 1cc4 BA95      		dec r27
 4208 1cc6 01F4      		brne 1b
 4209 1cc8 2601      		movw r4,r12
 4210 1cca 3701      		movw r6,r14
 4211 1ccc 49E0      		ldi r20,9
 4212               		1:
 4213 1cce 7694      		lsr r7
 4214 1cd0 6794      		ror r6
 4215 1cd2 5794      		ror r5
 4216 1cd4 4794      		ror r4
 4217 1cd6 4A95      		dec r20
 4218 1cd8 01F4      		brne 1b
 4219 1cda 402A      		or r4,r16
 4220 1cdc 512A      		or r5,r17
 4221 1cde 622A      		or r6,r18
 4222 1ce0 732A      		or r7,r19
  75:../freeRTOS750/lib_iinchip/md5.c **** 		a += b;
 4224               	.LM124:
 4225 1ce2 480C      		add r4,r8
 4226 1ce4 591C      		adc r5,r9
 4227 1ce6 6A1C      		adc r6,r10
 4228 1ce8 7B1C      		adc r7,r11
 4229               	.LBE69:
 4230               	.LBE68:
 230:../freeRTOS750/lib_iinchip/md5.c **** 	a = II(a, b, c, d, x[0],  S41, 0xf4292244); // 49
 4232               	.LM125:
 4233 1cea 54EF      		ldi r21,lo8(-12)
 4234 1cec 5F93      		push r21
 4235 1cee 29E2      		ldi r18,lo8(41)
 4236 1cf0 2F93      		push r18
 4237 1cf2 A2E2      		ldi r26,lo8(34)
 4238 1cf4 AF93      		push r26
 4239 1cf6 B4E4      		ldi r27,lo8(68)
 4240 1cf8 BF93      		push r27
 4241 1cfa 1F92      		push __zero_reg__
 4242 1cfc 1F92      		push __zero_reg__
 4243 1cfe 1F92      		push __zero_reg__
 4244 1d00 56E0      		ldi r21,lo8(6)
 4245 1d02 852E      		mov r8,r21
 4246 1d04 8F92      		push r8
 4247 1d06 2996      		adiw r28,72-63
 4248 1d08 EFAD      		ldd r30,Y+63
 4249 1d0a 2997      		sbiw r28,72-63
 4250 1d0c EF93      		push r30
 4251 1d0e 2896      		adiw r28,71-63
 4252 1d10 FFAD      		ldd r31,Y+63
 4253 1d12 2897      		sbiw r28,71-63
 4254 1d14 FF93      		push r31
 4255 1d16 2796      		adiw r28,70-63
 4256 1d18 9FAC      		ldd r9,Y+63
 4257 1d1a 2797      		sbiw r28,70-63
 4258 1d1c 9F92      		push r9
 4259 1d1e 2696      		adiw r28,69-63
 4260 1d20 AFAC      		ldd r10,Y+63
 4261 1d22 2697      		sbiw r28,69-63
 4262 1d24 AF92      		push r10
 4263 1d26 2596      		adiw r28,65-60
 4264 1d28 ACAC      		ldd r10,Y+60
 4265 1d2a BDAC      		ldd r11,Y+61
 4266 1d2c CEAC      		ldd r12,Y+62
 4267 1d2e DFAC      		ldd r13,Y+63
 4268 1d30 2597      		sbiw r28,65-60
 4269 1d32 2D96      		adiw r28,73-60
 4270 1d34 ECAC      		ldd r14,Y+60
 4271 1d36 FDAC      		ldd r15,Y+61
 4272 1d38 0EAD      		ldd r16,Y+62
 4273 1d3a 1FAD      		ldd r17,Y+63
 4274 1d3c 2D97      		sbiw r28,73-60
 4275 1d3e A301      		movw r20,r6
 4276 1d40 9201      		movw r18,r4
 4277 1d42 0E94 0000 		call II
 4278 1d46 0FB6      		in __tmp_reg__,__SREG__
 4279 1d48 F894      		cli
 4280 1d4a DEBF      		out __SP_H__,r29
 4281 1d4c 0FBE      		out __SREG__,__tmp_reg__
 4282 1d4e CDBF      		out __SP_L__,r28
 4283 1d50 2996      		adiw r28,69-60
 4284 1d52 6CAF      		std Y+60,r22
 4285 1d54 7DAF      		std Y+61,r23
 4286 1d56 8EAF      		std Y+62,r24
 4287 1d58 9FAF      		std Y+63,r25
 4288 1d5a 2997      		sbiw r28,69-60
 231:../freeRTOS750/lib_iinchip/md5.c **** 	d = II(d, a, b, c, x[7],  S42, 0x432aff97); // 50
 4290               	.LM126:
 4291 1d5c 33E4      		ldi r19,lo8(67)
 4292 1d5e 3F93      		push r19
 4293 1d60 4AE2      		ldi r20,lo8(42)
 4294 1d62 4F93      		push r20
 4295 1d64 5FEF      		ldi r21,lo8(-1)
 4296 1d66 5F93      		push r21
 4297 1d68 87E9      		ldi r24,lo8(-105)
 4298 1d6a 8F93      		push r24
 4299 1d6c 1F92      		push __zero_reg__
 4300 1d6e 1F92      		push __zero_reg__
 4301 1d70 1F92      		push __zero_reg__
 4302 1d72 6AE0      		ldi r22,lo8(10)
 4303 1d74 362E      		mov r3,r22
 4304 1d76 3F92      		push r3
 4305 1d78 6996      		adiw r28,88-63
 4306 1d7a 8FAD      		ldd r24,Y+63
 4307 1d7c 6997      		sbiw r28,88-63
 4308 1d7e 8F93      		push r24
 4309 1d80 6896      		adiw r28,87-63
 4310 1d82 9FAD      		ldd r25,Y+63
 4311 1d84 6897      		sbiw r28,87-63
 4312 1d86 9F93      		push r25
 4313 1d88 6796      		adiw r28,86-63
 4314 1d8a AFAD      		ldd r26,Y+63
 4315 1d8c 6797      		sbiw r28,86-63
 4316 1d8e AF93      		push r26
 4317 1d90 6696      		adiw r28,85-63
 4318 1d92 BFAD      		ldd r27,Y+63
 4319 1d94 6697      		sbiw r28,85-63
 4320 1d96 BF93      		push r27
 4321 1d98 2D96      		adiw r28,73-60
 4322 1d9a ACAC      		ldd r10,Y+60
 4323 1d9c BDAC      		ldd r11,Y+61
 4324 1d9e CEAC      		ldd r12,Y+62
 4325 1da0 DFAC      		ldd r13,Y+63
 4326 1da2 2D97      		sbiw r28,73-60
 4327 1da4 8301      		movw r16,r6
 4328 1da6 7201      		movw r14,r4
 4329 1da8 2996      		adiw r28,69-60
 4330 1daa 2CAD      		ldd r18,Y+60
 4331 1dac 3DAD      		ldd r19,Y+61
 4332 1dae 4EAD      		ldd r20,Y+62
 4333 1db0 5FAD      		ldd r21,Y+63
 4334 1db2 2997      		sbiw r28,69-60
 4335 1db4 2596      		adiw r28,65-60
 4336 1db6 6CAD      		ldd r22,Y+60
 4337 1db8 7DAD      		ldd r23,Y+61
 4338 1dba 8EAD      		ldd r24,Y+62
 4339 1dbc 9FAD      		ldd r25,Y+63
 4340 1dbe 2597      		sbiw r28,65-60
 4341 1dc0 0E94 0000 		call II
 4342 1dc4 0FB6      		in __tmp_reg__,__SREG__
 4343 1dc6 F894      		cli
 4344 1dc8 DEBF      		out __SP_H__,r29
 4345 1dca 0FBE      		out __SREG__,__tmp_reg__
 4346 1dcc CDBF      		out __SP_L__,r28
 4347 1dce 6996      		adiw r28,85-60
 4348 1dd0 6CAF      		std Y+60,r22
 4349 1dd2 7DAF      		std Y+61,r23
 4350 1dd4 8EAF      		std Y+62,r24
 4351 1dd6 9FAF      		std Y+63,r25
 4352 1dd8 6997      		sbiw r28,85-60
 232:../freeRTOS750/lib_iinchip/md5.c **** 	c = II(c, d, a, b, x[14], S43, 0xab9423a7); // 51
 4354               	.LM127:
 4355 1dda 8BEA      		ldi r24,lo8(-85)
 4356 1ddc 8F93      		push r24
 4357 1dde 84E9      		ldi r24,lo8(-108)
 4358 1de0 8F93      		push r24
 4359 1de2 83E2      		ldi r24,lo8(35)
 4360 1de4 8F93      		push r24
 4361 1de6 87EA      		ldi r24,lo8(-89)
 4362 1de8 8F93      		push r24
 4363 1dea 1F92      		push __zero_reg__
 4364 1dec 1F92      		push __zero_reg__
 4365 1dee 1F92      		push __zero_reg__
 4366 1df0 FFE0      		ldi r31,lo8(15)
 4367 1df2 FF93      		push r31
 4368 1df4 ED96      		adiw r28,124-63
 4369 1df6 9FAC      		ldd r9,Y+63
 4370 1df8 ED97      		sbiw r28,124-63
 4371 1dfa 9F92      		push r9
 4372 1dfc EC96      		adiw r28,123-63
 4373 1dfe AFAC      		ldd r10,Y+63
 4374 1e00 EC97      		sbiw r28,123-63
 4375 1e02 AF92      		push r10
 4376 1e04 EB96      		adiw r28,122-63
 4377 1e06 BFAC      		ldd r11,Y+63
 4378 1e08 EB97      		sbiw r28,122-63
 4379 1e0a BF92      		push r11
 4380 1e0c EA96      		adiw r28,121-63
 4381 1e0e CFAC      		ldd r12,Y+63
 4382 1e10 EA97      		sbiw r28,121-63
 4383 1e12 CF92      		push r12
 4384 1e14 6301      		movw r12,r6
 4385 1e16 5201      		movw r10,r4
 4386 1e18 2996      		adiw r28,69-60
 4387 1e1a ECAC      		ldd r14,Y+60
 4388 1e1c FDAC      		ldd r15,Y+61
 4389 1e1e 0EAD      		ldd r16,Y+62
 4390 1e20 1FAD      		ldd r17,Y+63
 4391 1e22 2997      		sbiw r28,69-60
 4392 1e24 6996      		adiw r28,85-60
 4393 1e26 2CAD      		ldd r18,Y+60
 4394 1e28 3DAD      		ldd r19,Y+61
 4395 1e2a 4EAD      		ldd r20,Y+62
 4396 1e2c 5FAD      		ldd r21,Y+63
 4397 1e2e 6997      		sbiw r28,85-60
 4398 1e30 2D96      		adiw r28,73-60
 4399 1e32 6CAD      		ldd r22,Y+60
 4400 1e34 7DAD      		ldd r23,Y+61
 4401 1e36 8EAD      		ldd r24,Y+62
 4402 1e38 9FAD      		ldd r25,Y+63
 4403 1e3a 2D97      		sbiw r28,73-60
 4404 1e3c 0E94 0000 		call II
 4405 1e40 0FB6      		in __tmp_reg__,__SREG__
 4406 1e42 F894      		cli
 4407 1e44 DEBF      		out __SP_H__,r29
 4408 1e46 0FBE      		out __SREG__,__tmp_reg__
 4409 1e48 CDBF      		out __SP_L__,r28
 4410 1e4a ED96      		adiw r28,121-60
 4411 1e4c 6CAF      		std Y+60,r22
 4412 1e4e 7DAF      		std Y+61,r23
 4413 1e50 8EAF      		std Y+62,r24
 4414 1e52 9FAF      		std Y+63,r25
 4415 1e54 ED97      		sbiw r28,121-60
 233:../freeRTOS750/lib_iinchip/md5.c **** 	b = II(b, c, d, a, x[5],  S44, 0xfc93a039); // 52
 4417               	.LM128:
 4418 1e56 3CEF      		ldi r19,lo8(-4)
 4419 1e58 3F93      		push r19
 4420 1e5a 43E9      		ldi r20,lo8(-109)
 4421 1e5c 4F93      		push r20
 4422 1e5e 80EA      		ldi r24,lo8(-96)
 4423 1e60 8F93      		push r24
 4424 1e62 89E3      		ldi r24,lo8(57)
 4425 1e64 8F93      		push r24
 4426 1e66 1F92      		push __zero_reg__
 4427 1e68 1F92      		push __zero_reg__
 4428 1e6a 1F92      		push __zero_reg__
 4429 1e6c 75E1      		ldi r23,lo8(21)
 4430 1e6e 272E      		mov r2,r23
 4431 1e70 2F92      		push r2
 4432 1e72 A196      		adiw r28,96-63
 4433 1e74 5FAD      		ldd r21,Y+63
 4434 1e76 A197      		sbiw r28,96-63
 4435 1e78 5F93      		push r21
 4436 1e7a A096      		adiw r28,95-63
 4437 1e7c 8FAD      		ldd r24,Y+63
 4438 1e7e A097      		sbiw r28,95-63
 4439 1e80 8F93      		push r24
 4440 1e82 6F96      		adiw r28,94-63
 4441 1e84 9FAD      		ldd r25,Y+63
 4442 1e86 6F97      		sbiw r28,94-63
 4443 1e88 9F93      		push r25
 4444 1e8a 6E96      		adiw r28,93-63
 4445 1e8c AFAD      		ldd r26,Y+63
 4446 1e8e 6E97      		sbiw r28,93-63
 4447 1e90 AF93      		push r26
 4448 1e92 2996      		adiw r28,69-60
 4449 1e94 ACAC      		ldd r10,Y+60
 4450 1e96 BDAC      		ldd r11,Y+61
 4451 1e98 CEAC      		ldd r12,Y+62
 4452 1e9a DFAC      		ldd r13,Y+63
 4453 1e9c 2997      		sbiw r28,69-60
 4454 1e9e 6996      		adiw r28,85-60
 4455 1ea0 ECAC      		ldd r14,Y+60
 4456 1ea2 FDAC      		ldd r15,Y+61
 4457 1ea4 0EAD      		ldd r16,Y+62
 4458 1ea6 1FAD      		ldd r17,Y+63
 4459 1ea8 6997      		sbiw r28,85-60
 4460 1eaa ED96      		adiw r28,121-60
 4461 1eac 2CAD      		ldd r18,Y+60
 4462 1eae 3DAD      		ldd r19,Y+61
 4463 1eb0 4EAD      		ldd r20,Y+62
 4464 1eb2 5FAD      		ldd r21,Y+63
 4465 1eb4 ED97      		sbiw r28,121-60
 4466 1eb6 C301      		movw r24,r6
 4467 1eb8 B201      		movw r22,r4
 4468 1eba 0E94 0000 		call II
 4469 1ebe 0FB6      		in __tmp_reg__,__SREG__
 4470 1ec0 F894      		cli
 4471 1ec2 DEBF      		out __SP_H__,r29
 4472 1ec4 0FBE      		out __SREG__,__tmp_reg__
 4473 1ec6 CDBF      		out __SP_L__,r28
 4474 1ec8 2B01      		movw r4,r22
 4475 1eca 3C01      		movw r6,r24
 234:../freeRTOS750/lib_iinchip/md5.c **** 	a = II(a, b, c, d, x[12], S41, 0x655b59c3); // 53
 4477               	.LM129:
 4478 1ecc 85E6      		ldi r24,lo8(101)
 4479 1ece 8F93      		push r24
 4480 1ed0 FBE5      		ldi r31,lo8(91)
 4481 1ed2 FF93      		push r31
 4482 1ed4 89E5      		ldi r24,lo8(89)
 4483 1ed6 8F93      		push r24
 4484 1ed8 E3EC      		ldi r30,lo8(-61)
 4485 1eda 9E2E      		mov r9,r30
 4486 1edc 9F92      		push r9
 4487 1ede 1F92      		push __zero_reg__
 4488 1ee0 1F92      		push __zero_reg__
 4489 1ee2 1F92      		push __zero_reg__
 4490 1ee4 8F92      		push r8
 4491 1ee6 E596      		adiw r28,116-63
 4492 1ee8 AFAC      		ldd r10,Y+63
 4493 1eea E597      		sbiw r28,116-63
 4494 1eec AF92      		push r10
 4495 1eee E496      		adiw r28,115-63
 4496 1ef0 BFAC      		ldd r11,Y+63
 4497 1ef2 E497      		sbiw r28,115-63
 4498 1ef4 BF92      		push r11
 4499 1ef6 E396      		adiw r28,114-63
 4500 1ef8 CFAC      		ldd r12,Y+63
 4501 1efa E397      		sbiw r28,114-63
 4502 1efc CF92      		push r12
 4503 1efe E296      		adiw r28,113-63
 4504 1f00 DFAC      		ldd r13,Y+63
 4505 1f02 E297      		sbiw r28,113-63
 4506 1f04 DF92      		push r13
 4507 1f06 6996      		adiw r28,85-60
 4508 1f08 ACAC      		ldd r10,Y+60
 4509 1f0a BDAC      		ldd r11,Y+61
 4510 1f0c CEAC      		ldd r12,Y+62
 4511 1f0e DFAC      		ldd r13,Y+63
 4512 1f10 6997      		sbiw r28,85-60
 4513 1f12 ED96      		adiw r28,121-60
 4514 1f14 ECAC      		ldd r14,Y+60
 4515 1f16 FDAC      		ldd r15,Y+61
 4516 1f18 0EAD      		ldd r16,Y+62
 4517 1f1a 1FAD      		ldd r17,Y+63
 4518 1f1c ED97      		sbiw r28,121-60
 4519 1f1e A301      		movw r20,r6
 4520 1f20 9201      		movw r18,r4
 4521 1f22 2996      		adiw r28,69-60
 4522 1f24 6CAD      		ldd r22,Y+60
 4523 1f26 7DAD      		ldd r23,Y+61
 4524 1f28 8EAD      		ldd r24,Y+62
 4525 1f2a 9FAD      		ldd r25,Y+63
 4526 1f2c 2997      		sbiw r28,69-60
 4527 1f2e 0E94 0000 		call II
 4528 1f32 0FB6      		in __tmp_reg__,__SREG__
 4529 1f34 F894      		cli
 4530 1f36 DEBF      		out __SP_H__,r29
 4531 1f38 0FBE      		out __SREG__,__tmp_reg__
 4532 1f3a CDBF      		out __SP_L__,r28
 4533 1f3c 2996      		adiw r28,69-60
 4534 1f3e 6CAF      		std Y+60,r22
 4535 1f40 7DAF      		std Y+61,r23
 4536 1f42 8EAF      		std Y+62,r24
 4537 1f44 9FAF      		std Y+63,r25
 4538 1f46 2997      		sbiw r28,69-60
 235:../freeRTOS750/lib_iinchip/md5.c **** 	d = II(d, a, b, c, x[3],  S42, 0x8f0ccc92); // 54
 4540               	.LM130:
 4541 1f48 8FE8      		ldi r24,lo8(-113)
 4542 1f4a 8F93      		push r24
 4543 1f4c 3CE0      		ldi r19,lo8(12)
 4544 1f4e 3F93      		push r19
 4545 1f50 8CEC      		ldi r24,lo8(-52)
 4546 1f52 8F93      		push r24
 4547 1f54 82E9      		ldi r24,lo8(-110)
 4548 1f56 8F93      		push r24
 4549 1f58 1F92      		push __zero_reg__
 4550 1f5a 1F92      		push __zero_reg__
 4551 1f5c 1F92      		push __zero_reg__
 4552 1f5e 3F92      		push r3
 4553 1f60 6596      		adiw r28,84-63
 4554 1f62 4FAD      		ldd r20,Y+63
 4555 1f64 6597      		sbiw r28,84-63
 4556 1f66 4F93      		push r20
 4557 1f68 6496      		adiw r28,83-63
 4558 1f6a 5FAD      		ldd r21,Y+63
 4559 1f6c 6497      		sbiw r28,83-63
 4560 1f6e 5F93      		push r21
 4561 1f70 6396      		adiw r28,82-63
 4562 1f72 8FAD      		ldd r24,Y+63
 4563 1f74 6397      		sbiw r28,82-63
 4564 1f76 8F93      		push r24
 4565 1f78 6296      		adiw r28,81-63
 4566 1f7a 9FAD      		ldd r25,Y+63
 4567 1f7c 6297      		sbiw r28,81-63
 4568 1f7e 9F93      		push r25
 4569 1f80 ED96      		adiw r28,121-60
 4570 1f82 ACAC      		ldd r10,Y+60
 4571 1f84 BDAC      		ldd r11,Y+61
 4572 1f86 CEAC      		ldd r12,Y+62
 4573 1f88 DFAC      		ldd r13,Y+63
 4574 1f8a ED97      		sbiw r28,121-60
 4575 1f8c 8301      		movw r16,r6
 4576 1f8e 7201      		movw r14,r4
 4577 1f90 2996      		adiw r28,69-60
 4578 1f92 2CAD      		ldd r18,Y+60
 4579 1f94 3DAD      		ldd r19,Y+61
 4580 1f96 4EAD      		ldd r20,Y+62
 4581 1f98 5FAD      		ldd r21,Y+63
 4582 1f9a 2997      		sbiw r28,69-60
 4583 1f9c 6996      		adiw r28,85-60
 4584 1f9e 6CAD      		ldd r22,Y+60
 4585 1fa0 7DAD      		ldd r23,Y+61
 4586 1fa2 8EAD      		ldd r24,Y+62
 4587 1fa4 9FAD      		ldd r25,Y+63
 4588 1fa6 6997      		sbiw r28,85-60
 4589 1fa8 0E94 0000 		call II
 4590 1fac 0FB6      		in __tmp_reg__,__SREG__
 4591 1fae F894      		cli
 4592 1fb0 DEBF      		out __SP_H__,r29
 4593 1fb2 0FBE      		out __SREG__,__tmp_reg__
 4594 1fb4 CDBF      		out __SP_L__,r28
 4595 1fb6 6596      		adiw r28,81-60
 4596 1fb8 6CAF      		std Y+60,r22
 4597 1fba 7DAF      		std Y+61,r23
 4598 1fbc 8EAF      		std Y+62,r24
 4599 1fbe 9FAF      		std Y+63,r25
 4600 1fc0 6597      		sbiw r28,81-60
 236:../freeRTOS750/lib_iinchip/md5.c **** 	c = II(c, d, a, b, x[10], S43, 0xffeff47d); // 55
 4602               	.LM131:
 4603 1fc2 BFEF      		ldi r27,lo8(-1)
 4604 1fc4 BF93      		push r27
 4605 1fc6 EFEE      		ldi r30,lo8(-17)
 4606 1fc8 EF93      		push r30
 4607 1fca F4EF      		ldi r31,lo8(-12)
 4608 1fcc FF93      		push r31
 4609 1fce 8DE7      		ldi r24,lo8(125)
 4610 1fd0 8F93      		push r24
 4611 1fd2 1F92      		push __zero_reg__
 4612 1fd4 1F92      		push __zero_reg__
 4613 1fd6 1F92      		push __zero_reg__
 4614 1fd8 FFE0      		ldi r31,lo8(15)
 4615 1fda 9F2E      		mov r9,r31
 4616 1fdc 9F92      		push r9
 4617 1fde C457      		subi r28,lo8(-140)
 4618 1fe0 DF4F      		sbci r29,hi8(-140)
 4619 1fe2 A880      		ld r10,Y
 4620 1fe4 CC58      		subi r28,lo8(140)
 4621 1fe6 D040      		sbci r29,hi8(140)
 4622 1fe8 AF92      		push r10
 4623 1fea C557      		subi r28,lo8(-139)
 4624 1fec DF4F      		sbci r29,hi8(-139)
 4625 1fee B880      		ld r11,Y
 4626 1ff0 CB58      		subi r28,lo8(139)
 4627 1ff2 D040      		sbci r29,hi8(139)
 4628 1ff4 BF92      		push r11
 4629 1ff6 C657      		subi r28,lo8(-138)
 4630 1ff8 DF4F      		sbci r29,hi8(-138)
 4631 1ffa C880      		ld r12,Y
 4632 1ffc CA58      		subi r28,lo8(138)
 4633 1ffe D040      		sbci r29,hi8(138)
 4634 2000 CF92      		push r12
 4635 2002 C757      		subi r28,lo8(-137)
 4636 2004 DF4F      		sbci r29,hi8(-137)
 4637 2006 D880      		ld r13,Y
 4638 2008 C958      		subi r28,lo8(137)
 4639 200a D040      		sbci r29,hi8(137)
 4640 200c DF92      		push r13
 4641 200e 6301      		movw r12,r6
 4642 2010 5201      		movw r10,r4
 4643 2012 2996      		adiw r28,69-60
 4644 2014 ECAC      		ldd r14,Y+60
 4645 2016 FDAC      		ldd r15,Y+61
 4646 2018 0EAD      		ldd r16,Y+62
 4647 201a 1FAD      		ldd r17,Y+63
 4648 201c 2997      		sbiw r28,69-60
 4649 201e 6596      		adiw r28,81-60
 4650 2020 2CAD      		ldd r18,Y+60
 4651 2022 3DAD      		ldd r19,Y+61
 4652 2024 4EAD      		ldd r20,Y+62
 4653 2026 5FAD      		ldd r21,Y+63
 4654 2028 6597      		sbiw r28,81-60
 4655 202a ED96      		adiw r28,121-60
 4656 202c 6CAD      		ldd r22,Y+60
 4657 202e 7DAD      		ldd r23,Y+61
 4658 2030 8EAD      		ldd r24,Y+62
 4659 2032 9FAD      		ldd r25,Y+63
 4660 2034 ED97      		sbiw r28,121-60
 4661 2036 0E94 0000 		call II
 4662 203a 0FB6      		in __tmp_reg__,__SREG__
 4663 203c F894      		cli
 4664 203e DEBF      		out __SP_H__,r29
 4665 2040 0FBE      		out __SREG__,__tmp_reg__
 4666 2042 CDBF      		out __SP_L__,r28
 4667 2044 A196      		adiw r28,93-60
 4668 2046 6CAF      		std Y+60,r22
 4669 2048 7DAF      		std Y+61,r23
 4670 204a 8EAF      		std Y+62,r24
 4671 204c 9FAF      		std Y+63,r25
 4672 204e A197      		sbiw r28,93-60
 237:../freeRTOS750/lib_iinchip/md5.c **** 	b = II(b, c, d, a, x[1],  S44, 0x85845dd1); // 56
 4674               	.LM132:
 4675 2050 85E8      		ldi r24,lo8(-123)
 4676 2052 8F93      		push r24
 4677 2054 84E8      		ldi r24,lo8(-124)
 4678 2056 8F93      		push r24
 4679 2058 3DE5      		ldi r19,lo8(93)
 4680 205a 3F93      		push r19
 4681 205c 81ED      		ldi r24,lo8(-47)
 4682 205e 8F93      		push r24
 4683 2060 1F92      		push __zero_reg__
 4684 2062 1F92      		push __zero_reg__
 4685 2064 1F92      		push __zero_reg__
 4686 2066 2F92      		push r2
 4687 2068 6196      		adiw r28,80-63
 4688 206a 4FAD      		ldd r20,Y+63
 4689 206c 6197      		sbiw r28,80-63
 4690 206e 4F93      		push r20
 4691 2070 6096      		adiw r28,79-63
 4692 2072 5FAD      		ldd r21,Y+63
 4693 2074 6097      		sbiw r28,79-63
 4694 2076 5F93      		push r21
 4695 2078 2F96      		adiw r28,78-63
 4696 207a 8FAD      		ldd r24,Y+63
 4697 207c 2F97      		sbiw r28,78-63
 4698 207e 8F93      		push r24
 4699 2080 2E96      		adiw r28,77-63
 4700 2082 9FAD      		ldd r25,Y+63
 4701 2084 2E97      		sbiw r28,77-63
 4702 2086 9F93      		push r25
 4703 2088 2996      		adiw r28,69-60
 4704 208a ACAC      		ldd r10,Y+60
 4705 208c BDAC      		ldd r11,Y+61
 4706 208e CEAC      		ldd r12,Y+62
 4707 2090 DFAC      		ldd r13,Y+63
 4708 2092 2997      		sbiw r28,69-60
 4709 2094 6596      		adiw r28,81-60
 4710 2096 ECAC      		ldd r14,Y+60
 4711 2098 FDAC      		ldd r15,Y+61
 4712 209a 0EAD      		ldd r16,Y+62
 4713 209c 1FAD      		ldd r17,Y+63
 4714 209e 6597      		sbiw r28,81-60
 4715 20a0 A196      		adiw r28,93-60
 4716 20a2 2CAD      		ldd r18,Y+60
 4717 20a4 3DAD      		ldd r19,Y+61
 4718 20a6 4EAD      		ldd r20,Y+62
 4719 20a8 5FAD      		ldd r21,Y+63
 4720 20aa A197      		sbiw r28,93-60
 4721 20ac C301      		movw r24,r6
 4722 20ae B201      		movw r22,r4
 4723 20b0 0E94 0000 		call II
 4724 20b4 0FB6      		in __tmp_reg__,__SREG__
 4725 20b6 F894      		cli
 4726 20b8 DEBF      		out __SP_H__,r29
 4727 20ba 0FBE      		out __SREG__,__tmp_reg__
 4728 20bc CDBF      		out __SP_L__,r28
 4729 20be 6196      		adiw r28,77-60
 4730 20c0 6CAF      		std Y+60,r22
 4731 20c2 7DAF      		std Y+61,r23
 4732 20c4 8EAF      		std Y+62,r24
 4733 20c6 9FAF      		std Y+63,r25
 4734 20c8 6197      		sbiw r28,77-60
 238:../freeRTOS750/lib_iinchip/md5.c **** 	a = II(a, b, c, d, x[8],  S41, 0x6fa87e4f); // 57
 4736               	.LM133:
 4737 20ca BFE6      		ldi r27,lo8(111)
 4738 20cc BF93      		push r27
 4739 20ce E8EA      		ldi r30,lo8(-88)
 4740 20d0 EF93      		push r30
 4741 20d2 AEE7      		ldi r26,lo8(126)
 4742 20d4 9A2E      		mov r9,r26
 4743 20d6 9F92      		push r9
 4744 20d8 8FE4      		ldi r24,lo8(79)
 4745 20da 8F93      		push r24
 4746 20dc 1F92      		push __zero_reg__
 4747 20de 1F92      		push __zero_reg__
 4748 20e0 1F92      		push __zero_reg__
 4749 20e2 8F92      		push r8
 4750 20e4 A996      		adiw r28,104-63
 4751 20e6 FFAD      		ldd r31,Y+63
 4752 20e8 A997      		sbiw r28,104-63
 4753 20ea FF93      		push r31
 4754 20ec A896      		adiw r28,103-63
 4755 20ee 4FAC      		ldd r4,Y+63
 4756 20f0 A897      		sbiw r28,103-63
 4757 20f2 4F92      		push r4
 4758 20f4 A796      		adiw r28,102-63
 4759 20f6 5FAC      		ldd r5,Y+63
 4760 20f8 A797      		sbiw r28,102-63
 4761 20fa 5F92      		push r5
 4762 20fc A696      		adiw r28,101-63
 4763 20fe 6FAC      		ldd r6,Y+63
 4764 2100 A697      		sbiw r28,101-63
 4765 2102 6F92      		push r6
 4766 2104 6596      		adiw r28,81-60
 4767 2106 ACAC      		ldd r10,Y+60
 4768 2108 BDAC      		ldd r11,Y+61
 4769 210a CEAC      		ldd r12,Y+62
 4770 210c DFAC      		ldd r13,Y+63
 4771 210e 6597      		sbiw r28,81-60
 4772 2110 A196      		adiw r28,93-60
 4773 2112 ECAC      		ldd r14,Y+60
 4774 2114 FDAC      		ldd r15,Y+61
 4775 2116 0EAD      		ldd r16,Y+62
 4776 2118 1FAD      		ldd r17,Y+63
 4777 211a A197      		sbiw r28,93-60
 4778 211c 6196      		adiw r28,77-60
 4779 211e 2CAD      		ldd r18,Y+60
 4780 2120 3DAD      		ldd r19,Y+61
 4781 2122 4EAD      		ldd r20,Y+62
 4782 2124 5FAD      		ldd r21,Y+63
 4783 2126 6197      		sbiw r28,77-60
 4784 2128 2996      		adiw r28,69-60
 4785 212a 6CAD      		ldd r22,Y+60
 4786 212c 7DAD      		ldd r23,Y+61
 4787 212e 8EAD      		ldd r24,Y+62
 4788 2130 9FAD      		ldd r25,Y+63
 4789 2132 2997      		sbiw r28,69-60
 4790 2134 0E94 0000 		call II
 4791 2138 0FB6      		in __tmp_reg__,__SREG__
 4792 213a F894      		cli
 4793 213c DEBF      		out __SP_H__,r29
 4794 213e 0FBE      		out __SREG__,__tmp_reg__
 4795 2140 CDBF      		out __SP_L__,r28
 4796 2142 2996      		adiw r28,69-60
 4797 2144 6CAF      		std Y+60,r22
 4798 2146 7DAF      		std Y+61,r23
 4799 2148 8EAF      		std Y+62,r24
 4800 214a 9FAF      		std Y+63,r25
 4801 214c 2997      		sbiw r28,69-60
 239:../freeRTOS750/lib_iinchip/md5.c **** 	d = II(d, a, b, c, x[15], S42, 0xfe2ce6e0); // 58
 4803               	.LM134:
 4804 214e 8EEF      		ldi r24,lo8(-2)
 4805 2150 8F93      		push r24
 4806 2152 8CE2      		ldi r24,lo8(44)
 4807 2154 8F93      		push r24
 4808 2156 36EE      		ldi r19,lo8(-26)
 4809 2158 3F93      		push r19
 4810 215a 80EE      		ldi r24,lo8(-32)
 4811 215c 8F93      		push r24
 4812 215e 1F92      		push __zero_reg__
 4813 2160 1F92      		push __zero_reg__
 4814 2162 1F92      		push __zero_reg__
 4815 2164 3F92      		push r3
 4816 2166 C058      		subi r28,lo8(-128)
 4817 2168 DF4F      		sbci r29,hi8(-128)
 4818 216a 4881      		ld r20,Y
 4819 216c C058      		subi r28,lo8(128)
 4820 216e D040      		sbci r29,hi8(128)
 4821 2170 4F93      		push r20
 4822 2172 C158      		subi r28,lo8(-127)
 4823 2174 DF4F      		sbci r29,hi8(-127)
 4824 2176 5881      		ld r21,Y
 4825 2178 CF57      		subi r28,lo8(127)
 4826 217a D040      		sbci r29,hi8(127)
 4827 217c 5F93      		push r21
 4828 217e EF96      		adiw r28,126-63
 4829 2180 8FAD      		ldd r24,Y+63
 4830 2182 EF97      		sbiw r28,126-63
 4831 2184 8F93      		push r24
 4832 2186 EE96      		adiw r28,125-63
 4833 2188 9FAD      		ldd r25,Y+63
 4834 218a EE97      		sbiw r28,125-63
 4835 218c 9F93      		push r25
 4836 218e A196      		adiw r28,93-60
 4837 2190 ACAC      		ldd r10,Y+60
 4838 2192 BDAC      		ldd r11,Y+61
 4839 2194 CEAC      		ldd r12,Y+62
 4840 2196 DFAC      		ldd r13,Y+63
 4841 2198 A197      		sbiw r28,93-60
 4842 219a 6196      		adiw r28,77-60
 4843 219c ECAC      		ldd r14,Y+60
 4844 219e FDAC      		ldd r15,Y+61
 4845 21a0 0EAD      		ldd r16,Y+62
 4846 21a2 1FAD      		ldd r17,Y+63
 4847 21a4 6197      		sbiw r28,77-60
 4848 21a6 2996      		adiw r28,69-60
 4849 21a8 2CAD      		ldd r18,Y+60
 4850 21aa 3DAD      		ldd r19,Y+61
 4851 21ac 4EAD      		ldd r20,Y+62
 4852 21ae 5FAD      		ldd r21,Y+63
 4853 21b0 2997      		sbiw r28,69-60
 4854 21b2 6596      		adiw r28,81-60
 4855 21b4 6CAD      		ldd r22,Y+60
 4856 21b6 7DAD      		ldd r23,Y+61
 4857 21b8 8EAD      		ldd r24,Y+62
 4858 21ba 9FAD      		ldd r25,Y+63
 4859 21bc 6597      		sbiw r28,81-60
 4860 21be 0E94 0000 		call II
 4861 21c2 0FB6      		in __tmp_reg__,__SREG__
 4862 21c4 F894      		cli
 4863 21c6 DEBF      		out __SP_H__,r29
 4864 21c8 0FBE      		out __SREG__,__tmp_reg__
 4865 21ca CDBF      		out __SP_L__,r28
 4866 21cc 2B01      		movw r4,r22
 4867 21ce 3C01      		movw r6,r24
 240:../freeRTOS750/lib_iinchip/md5.c **** 	c = II(c, d, a, b, x[6],  S43, 0xa3014314); // 59
 4869               	.LM135:
 4870 21d0 B3EA      		ldi r27,lo8(-93)
 4871 21d2 BF93      		push r27
 4872 21d4 E1E0      		ldi r30,lo8(1)
 4873 21d6 EF93      		push r30
 4874 21d8 F3E4      		ldi r31,lo8(67)
 4875 21da FF93      		push r31
 4876 21dc B4E1      		ldi r27,lo8(20)
 4877 21de AB2E      		mov r10,r27
 4878 21e0 AF92      		push r10
 4879 21e2 1F92      		push __zero_reg__
 4880 21e4 1F92      		push __zero_reg__
 4881 21e6 1F92      		push __zero_reg__
 4882 21e8 1FE0      		ldi r17,lo8(15)
 4883 21ea B12E      		mov r11,r17
 4884 21ec BF92      		push r11
 4885 21ee A596      		adiw r28,100-63
 4886 21f0 CFAC      		ldd r12,Y+63
 4887 21f2 A597      		sbiw r28,100-63
 4888 21f4 CF92      		push r12
 4889 21f6 A496      		adiw r28,99-63
 4890 21f8 DFAC      		ldd r13,Y+63
 4891 21fa A497      		sbiw r28,99-63
 4892 21fc DF92      		push r13
 4893 21fe A396      		adiw r28,98-63
 4894 2200 EFAC      		ldd r14,Y+63
 4895 2202 A397      		sbiw r28,98-63
 4896 2204 EF92      		push r14
 4897 2206 A296      		adiw r28,97-63
 4898 2208 FFAC      		ldd r15,Y+63
 4899 220a A297      		sbiw r28,97-63
 4900 220c FF92      		push r15
 4901 220e 6196      		adiw r28,77-60
 4902 2210 ACAC      		ldd r10,Y+60
 4903 2212 BDAC      		ldd r11,Y+61
 4904 2214 CEAC      		ldd r12,Y+62
 4905 2216 DFAC      		ldd r13,Y+63
 4906 2218 6197      		sbiw r28,77-60
 4907 221a 2996      		adiw r28,69-60
 4908 221c ECAC      		ldd r14,Y+60
 4909 221e FDAC      		ldd r15,Y+61
 4910 2220 0EAD      		ldd r16,Y+62
 4911 2222 1FAD      		ldd r17,Y+63
 4912 2224 2997      		sbiw r28,69-60
 4913 2226 9B01      		movw r18,r22
 4914 2228 AC01      		movw r20,r24
 4915 222a A196      		adiw r28,93-60
 4916 222c 6CAD      		ldd r22,Y+60
 4917 222e 7DAD      		ldd r23,Y+61
 4918 2230 8EAD      		ldd r24,Y+62
 4919 2232 9FAD      		ldd r25,Y+63
 4920 2234 A197      		sbiw r28,93-60
 4921 2236 0E94 0000 		call II
 4922 223a 0FB6      		in __tmp_reg__,__SREG__
 4923 223c F894      		cli
 4924 223e DEBF      		out __SP_H__,r29
 4925 2240 0FBE      		out __SREG__,__tmp_reg__
 4926 2242 CDBF      		out __SP_L__,r28
 4927 2244 6596      		adiw r28,81-60
 4928 2246 6CAF      		std Y+60,r22
 4929 2248 7DAF      		std Y+61,r23
 4930 224a 8EAF      		std Y+62,r24
 4931 224c 9FAF      		std Y+63,r25
 4932 224e 6597      		sbiw r28,81-60
 241:../freeRTOS750/lib_iinchip/md5.c **** 	b = II(b, c, d, a, x[13], S44, 0x4e0811a1); // 60
 4934               	.LM136:
 4935 2250 8EE4      		ldi r24,lo8(78)
 4936 2252 8F93      		push r24
 4937 2254 38E0      		ldi r19,lo8(8)
 4938 2256 3F93      		push r19
 4939 2258 41E1      		ldi r20,lo8(17)
 4940 225a 4F93      		push r20
 4941 225c 51EA      		ldi r21,lo8(-95)
 4942 225e 5F93      		push r21
 4943 2260 1F92      		push __zero_reg__
 4944 2262 1F92      		push __zero_reg__
 4945 2264 1F92      		push __zero_reg__
 4946 2266 2F92      		push r2
 4947 2268 E996      		adiw r28,120-63
 4948 226a 8FAD      		ldd r24,Y+63
 4949 226c E997      		sbiw r28,120-63
 4950 226e 8F93      		push r24
 4951 2270 E896      		adiw r28,119-63
 4952 2272 9FAD      		ldd r25,Y+63
 4953 2274 E897      		sbiw r28,119-63
 4954 2276 9F93      		push r25
 4955 2278 E796      		adiw r28,118-63
 4956 227a AFAD      		ldd r26,Y+63
 4957 227c E797      		sbiw r28,118-63
 4958 227e AF93      		push r26
 4959 2280 E696      		adiw r28,117-63
 4960 2282 BFAD      		ldd r27,Y+63
 4961 2284 E697      		sbiw r28,117-63
 4962 2286 BF93      		push r27
 4963 2288 2996      		adiw r28,69-60
 4964 228a ACAC      		ldd r10,Y+60
 4965 228c BDAC      		ldd r11,Y+61
 4966 228e CEAC      		ldd r12,Y+62
 4967 2290 DFAC      		ldd r13,Y+63
 4968 2292 2997      		sbiw r28,69-60
 4969 2294 8301      		movw r16,r6
 4970 2296 7201      		movw r14,r4
 4971 2298 6596      		adiw r28,81-60
 4972 229a 2CAD      		ldd r18,Y+60
 4973 229c 3DAD      		ldd r19,Y+61
 4974 229e 4EAD      		ldd r20,Y+62
 4975 22a0 5FAD      		ldd r21,Y+63
 4976 22a2 6597      		sbiw r28,81-60
 4977 22a4 6196      		adiw r28,77-60
 4978 22a6 6CAD      		ldd r22,Y+60
 4979 22a8 7DAD      		ldd r23,Y+61
 4980 22aa 8EAD      		ldd r24,Y+62
 4981 22ac 9FAD      		ldd r25,Y+63
 4982 22ae 6197      		sbiw r28,77-60
 4983 22b0 0E94 0000 		call II
 4984 22b4 0FB6      		in __tmp_reg__,__SREG__
 4985 22b6 F894      		cli
 4986 22b8 DEBF      		out __SP_H__,r29
 4987 22ba 0FBE      		out __SREG__,__tmp_reg__
 4988 22bc CDBF      		out __SP_L__,r28
 4989 22be 6196      		adiw r28,77-60
 4990 22c0 6CAF      		std Y+60,r22
 4991 22c2 7DAF      		std Y+61,r23
 4992 22c4 8EAF      		std Y+62,r24
 4993 22c6 9FAF      		std Y+63,r25
 4994 22c8 6197      		sbiw r28,77-60
 242:../freeRTOS750/lib_iinchip/md5.c **** 	a = II(a, b, c, d, x[4],  S41, 0xf7537e82); // 61
 4996               	.LM137:
 4997 22ca F7EF      		ldi r31,lo8(-9)
 4998 22cc FF93      		push r31
 4999 22ce 03E5      		ldi r16,lo8(83)
 5000 22d0 A02E      		mov r10,r16
 5001 22d2 AF92      		push r10
 5002 22d4 9F92      		push r9
 5003 22d6 82E8      		ldi r24,lo8(-126)
 5004 22d8 8F93      		push r24
 5005 22da 1F92      		push __zero_reg__
 5006 22dc 1F92      		push __zero_reg__
 5007 22de 1F92      		push __zero_reg__
 5008 22e0 8F92      		push r8
 5009 22e2 CC57      		subi r28,lo8(-132)
 5010 22e4 DF4F      		sbci r29,hi8(-132)
 5011 22e6 B880      		ld r11,Y
 5012 22e8 C458      		subi r28,lo8(132)
 5013 22ea D040      		sbci r29,hi8(132)
 5014 22ec BF92      		push r11
 5015 22ee CD57      		subi r28,lo8(-131)
 5016 22f0 DF4F      		sbci r29,hi8(-131)
 5017 22f2 C880      		ld r12,Y
 5018 22f4 C358      		subi r28,lo8(131)
 5019 22f6 D040      		sbci r29,hi8(131)
 5020 22f8 CF92      		push r12
 5021 22fa CE57      		subi r28,lo8(-130)
 5022 22fc DF4F      		sbci r29,hi8(-130)
 5023 22fe D880      		ld r13,Y
 5024 2300 C258      		subi r28,lo8(130)
 5025 2302 D040      		sbci r29,hi8(130)
 5026 2304 DF92      		push r13
 5027 2306 CF57      		subi r28,lo8(-129)
 5028 2308 DF4F      		sbci r29,hi8(-129)
 5029 230a E880      		ld r14,Y
 5030 230c C158      		subi r28,lo8(129)
 5031 230e D040      		sbci r29,hi8(129)
 5032 2310 EF92      		push r14
 5033 2312 6301      		movw r12,r6
 5034 2314 5201      		movw r10,r4
 5035 2316 6596      		adiw r28,81-60
 5036 2318 ECAC      		ldd r14,Y+60
 5037 231a FDAC      		ldd r15,Y+61
 5038 231c 0EAD      		ldd r16,Y+62
 5039 231e 1FAD      		ldd r17,Y+63
 5040 2320 6597      		sbiw r28,81-60
 5041 2322 6196      		adiw r28,77-60
 5042 2324 2CAD      		ldd r18,Y+60
 5043 2326 3DAD      		ldd r19,Y+61
 5044 2328 4EAD      		ldd r20,Y+62
 5045 232a 5FAD      		ldd r21,Y+63
 5046 232c 6197      		sbiw r28,77-60
 5047 232e 2996      		adiw r28,69-60
 5048 2330 6CAD      		ldd r22,Y+60
 5049 2332 7DAD      		ldd r23,Y+61
 5050 2334 8EAD      		ldd r24,Y+62
 5051 2336 9FAD      		ldd r25,Y+63
 5052 2338 2997      		sbiw r28,69-60
 5053 233a 0E94 0000 		call II
 5054 233e 0FB6      		in __tmp_reg__,__SREG__
 5055 2340 F894      		cli
 5056 2342 DEBF      		out __SP_H__,r29
 5057 2344 0FBE      		out __SREG__,__tmp_reg__
 5058 2346 CDBF      		out __SP_L__,r28
 5059 2348 2996      		adiw r28,69-60
 5060 234a 6CAF      		std Y+60,r22
 5061 234c 7DAF      		std Y+61,r23
 5062 234e 8EAF      		std Y+62,r24
 5063 2350 9FAF      		std Y+63,r25
 5064 2352 2997      		sbiw r28,69-60
 243:../freeRTOS750/lib_iinchip/md5.c **** 	d = II(d, a, b, c, x[11], S42, 0xbd3af235); // 62
 5066               	.LM138:
 5067 2354 3DEB      		ldi r19,lo8(-67)
 5068 2356 3F93      		push r19
 5069 2358 8AE3      		ldi r24,lo8(58)
 5070 235a 8F93      		push r24
 5071 235c 82EF      		ldi r24,lo8(-14)
 5072 235e 8F93      		push r24
 5073 2360 85E3      		ldi r24,lo8(53)
 5074 2362 8F93      		push r24
 5075 2364 1F92      		push __zero_reg__
 5076 2366 1F92      		push __zero_reg__
 5077 2368 1F92      		push __zero_reg__
 5078 236a 3F92      		push r3
 5079 236c E196      		adiw r28,112-63
 5080 236e 4FAD      		ldd r20,Y+63
 5081 2370 E197      		sbiw r28,112-63
 5082 2372 4F93      		push r20
 5083 2374 E096      		adiw r28,111-63
 5084 2376 5FAD      		ldd r21,Y+63
 5085 2378 E097      		sbiw r28,111-63
 5086 237a 5F93      		push r21
 5087 237c AF96      		adiw r28,110-63
 5088 237e 8FAD      		ldd r24,Y+63
 5089 2380 AF97      		sbiw r28,110-63
 5090 2382 8F93      		push r24
 5091 2384 AE96      		adiw r28,109-63
 5092 2386 9FAD      		ldd r25,Y+63
 5093 2388 AE97      		sbiw r28,109-63
 5094 238a 9F93      		push r25
 5095 238c 6596      		adiw r28,81-60
 5096 238e ACAC      		ldd r10,Y+60
 5097 2390 BDAC      		ldd r11,Y+61
 5098 2392 CEAC      		ldd r12,Y+62
 5099 2394 DFAC      		ldd r13,Y+63
 5100 2396 6597      		sbiw r28,81-60
 5101 2398 6196      		adiw r28,77-60
 5102 239a ECAC      		ldd r14,Y+60
 5103 239c FDAC      		ldd r15,Y+61
 5104 239e 0EAD      		ldd r16,Y+62
 5105 23a0 1FAD      		ldd r17,Y+63
 5106 23a2 6197      		sbiw r28,77-60
 5107 23a4 2996      		adiw r28,69-60
 5108 23a6 2CAD      		ldd r18,Y+60
 5109 23a8 3DAD      		ldd r19,Y+61
 5110 23aa 4EAD      		ldd r20,Y+62
 5111 23ac 5FAD      		ldd r21,Y+63
 5112 23ae 2997      		sbiw r28,69-60
 5113 23b0 C301      		movw r24,r6
 5114 23b2 B201      		movw r22,r4
 5115 23b4 0E94 0000 		call II
 5116 23b8 0FB6      		in __tmp_reg__,__SREG__
 5117 23ba F894      		cli
 5118 23bc DEBF      		out __SP_H__,r29
 5119 23be 0FBE      		out __SREG__,__tmp_reg__
 5120 23c0 CDBF      		out __SP_L__,r28
 5121 23c2 CF57      		subi r28,lo8(-129)
 5122 23c4 DF4F      		sbci r29,hi8(-129)
 5123 23c6 6883      		st Y,r22
 5124 23c8 7983      		std Y+1,r23
 5125 23ca 8A83      		std Y+2,r24
 5126 23cc 9B83      		std Y+3,r25
 5127 23ce C158      		subi r28,lo8(129)
 5128 23d0 D040      		sbci r29,hi8(129)
 244:../freeRTOS750/lib_iinchip/md5.c **** 	c = II(c, d, a, b, x[2],  S43, 0x2ad7d2bb); // 63
 5130               	.LM139:
 5131 23d2 BAE2      		ldi r27,lo8(42)
 5132 23d4 BF93      		push r27
 5133 23d6 E7ED      		ldi r30,lo8(-41)
 5134 23d8 EF93      		push r30
 5135 23da 82ED      		ldi r24,lo8(-46)
 5136 23dc 8F93      		push r24
 5137 23de 8BEB      		ldi r24,lo8(-69)
 5138 23e0 8F93      		push r24
 5139 23e2 1F92      		push __zero_reg__
 5140 23e4 1F92      		push __zero_reg__
 5141 23e6 1F92      		push __zero_reg__
 5142 23e8 FFE0      		ldi r31,lo8(15)
 5143 23ea FF93      		push r31
 5144 23ec C857      		subi r28,lo8(-136)
 5145 23ee DF4F      		sbci r29,hi8(-136)
 5146 23f0 4880      		ld r4,Y
 5147 23f2 C858      		subi r28,lo8(136)
 5148 23f4 D040      		sbci r29,hi8(136)
 5149 23f6 4F92      		push r4
 5150 23f8 C957      		subi r28,lo8(-135)
 5151 23fa DF4F      		sbci r29,hi8(-135)
 5152 23fc 5880      		ld r5,Y
 5153 23fe C758      		subi r28,lo8(135)
 5154 2400 D040      		sbci r29,hi8(135)
 5155 2402 5F92      		push r5
 5156 2404 CA57      		subi r28,lo8(-134)
 5157 2406 DF4F      		sbci r29,hi8(-134)
 5158 2408 6880      		ld r6,Y
 5159 240a C658      		subi r28,lo8(134)
 5160 240c D040      		sbci r29,hi8(134)
 5161 240e 6F92      		push r6
 5162 2410 CB57      		subi r28,lo8(-133)
 5163 2412 DF4F      		sbci r29,hi8(-133)
 5164 2414 7880      		ld r7,Y
 5165 2416 C558      		subi r28,lo8(133)
 5166 2418 D040      		sbci r29,hi8(133)
 5167 241a 7F92      		push r7
 5168 241c 6196      		adiw r28,77-60
 5169 241e ACAC      		ldd r10,Y+60
 5170 2420 BDAC      		ldd r11,Y+61
 5171 2422 CEAC      		ldd r12,Y+62
 5172 2424 DFAC      		ldd r13,Y+63
 5173 2426 6197      		sbiw r28,77-60
 5174 2428 2996      		adiw r28,69-60
 5175 242a ECAC      		ldd r14,Y+60
 5176 242c FDAC      		ldd r15,Y+61
 5177 242e 0EAD      		ldd r16,Y+62
 5178 2430 1FAD      		ldd r17,Y+63
 5179 2432 2997      		sbiw r28,69-60
 5180 2434 CF57      		subi r28,lo8(-129)
 5181 2436 DF4F      		sbci r29,hi8(-129)
 5182 2438 2881      		ld r18,Y
 5183 243a 3981      		ldd r19,Y+1
 5184 243c 4A81      		ldd r20,Y+2
 5185 243e 5B81      		ldd r21,Y+3
 5186 2440 C158      		subi r28,lo8(129)
 5187 2442 D040      		sbci r29,hi8(129)
 5188 2444 6596      		adiw r28,81-60
 5189 2446 6CAD      		ldd r22,Y+60
 5190 2448 7DAD      		ldd r23,Y+61
 5191 244a 8EAD      		ldd r24,Y+62
 5192 244c 9FAD      		ldd r25,Y+63
 5193 244e 6597      		sbiw r28,81-60
 5194 2450 0E94 0000 		call II
 5195 2454 0FB6      		in __tmp_reg__,__SREG__
 5196 2456 F894      		cli
 5197 2458 DEBF      		out __SP_H__,r29
 5198 245a 0FBE      		out __SREG__,__tmp_reg__
 5199 245c CDBF      		out __SP_L__,r28
 5200 245e 2B01      		movw r4,r22
 5201 2460 3C01      		movw r6,r24
 245:../freeRTOS750/lib_iinchip/md5.c **** 	b = II(b, c, d, a, x[9],  S44, 0xeb86d391); // 64
 5203               	.LM140:
 5204 2462 8BEE      		ldi r24,lo8(-21)
 5205 2464 8F93      		push r24
 5206 2466 86E8      		ldi r24,lo8(-122)
 5207 2468 8F93      		push r24
 5208 246a 33ED      		ldi r19,lo8(-45)
 5209 246c 3F93      		push r19
 5210 246e 81E9      		ldi r24,lo8(-111)
 5211 2470 8F93      		push r24
 5212 2472 1F92      		push __zero_reg__
 5213 2474 1F92      		push __zero_reg__
 5214 2476 1F92      		push __zero_reg__
 5215 2478 2F92      		push r2
 5216 247a AD96      		adiw r28,108-63
 5217 247c 4FAD      		ldd r20,Y+63
 5218 247e AD97      		sbiw r28,108-63
 5219 2480 4F93      		push r20
 5220 2482 AC96      		adiw r28,107-63
 5221 2484 5FAD      		ldd r21,Y+63
 5222 2486 AC97      		sbiw r28,107-63
 5223 2488 5F93      		push r21
 5224 248a AB96      		adiw r28,106-63
 5225 248c 8FAD      		ldd r24,Y+63
 5226 248e AB97      		sbiw r28,106-63
 5227 2490 8F93      		push r24
 5228 2492 AA96      		adiw r28,105-63
 5229 2494 9FAD      		ldd r25,Y+63
 5230 2496 AA97      		sbiw r28,105-63
 5231 2498 9F93      		push r25
 5232 249a 2996      		adiw r28,69-60
 5233 249c ACAC      		ldd r10,Y+60
 5234 249e BDAC      		ldd r11,Y+61
 5235 24a0 CEAC      		ldd r12,Y+62
 5236 24a2 DFAC      		ldd r13,Y+63
 5237 24a4 2997      		sbiw r28,69-60
 5238 24a6 CF57      		subi r28,lo8(-129)
 5239 24a8 DF4F      		sbci r29,hi8(-129)
 5240 24aa E880      		ld r14,Y
 5241 24ac F980      		ldd r15,Y+1
 5242 24ae 0A81      		ldd r16,Y+2
 5243 24b0 1B81      		ldd r17,Y+3
 5244 24b2 C158      		subi r28,lo8(129)
 5245 24b4 D040      		sbci r29,hi8(129)
 5246 24b6 A301      		movw r20,r6
 5247 24b8 9201      		movw r18,r4
 5248 24ba 6196      		adiw r28,77-60
 5249 24bc 6CAD      		ldd r22,Y+60
 5250 24be 7DAD      		ldd r23,Y+61
 5251 24c0 8EAD      		ldd r24,Y+62
 5252 24c2 9FAD      		ldd r25,Y+63
 5253 24c4 6197      		sbiw r28,77-60
 5254 24c6 0E94 0000 		call II
 5255 24ca 0FB6      		in __tmp_reg__,__SREG__
 5256 24cc F894      		cli
 5257 24ce DEBF      		out __SP_H__,r29
 5258 24d0 0FBE      		out __SREG__,__tmp_reg__
 5259 24d2 CDBF      		out __SP_L__,r28
 247:../freeRTOS750/lib_iinchip/md5.c **** 	state[0] += a;
 5261               	.LM141:
 5262 24d4 9601      		movw r18,r12
 5263 24d6 8501      		movw r16,r10
 5264 24d8 C156      		subi r28,lo8(-159)
 5265 24da DF4F      		sbci r29,hi8(-159)
 5266 24dc 8880      		ld r8,Y
 5267 24de 9980      		ldd r9,Y+1
 5268 24e0 AA80      		ldd r10,Y+2
 5269 24e2 BB80      		ldd r11,Y+3
 5270 24e4 CF59      		subi r28,lo8(159)
 5271 24e6 D040      		sbci r29,hi8(159)
 5272 24e8 080D      		add r16,r8
 5273 24ea 191D      		adc r17,r9
 5274 24ec 2A1D      		adc r18,r10
 5275 24ee 3B1D      		adc r19,r11
 5276 24f0 CF56      		subi r28,lo8(-145)
 5277 24f2 DF4F      		sbci r29,hi8(-145)
 5278 24f4 A881      		ld r26,Y
 5279 24f6 B981      		ldd r27,Y+1
 5280 24f8 C159      		subi r28,lo8(145)
 5281 24fa D040      		sbci r29,hi8(145)
 5282 24fc 0D93      		st X+,r16
 5283 24fe 1D93      		st X+,r17
 5284 2500 2D93      		st X+,r18
 5285 2502 3C93      		st X,r19
 5286 2504 1397      		sbiw r26,3
 248:../freeRTOS750/lib_iinchip/md5.c **** 	state[1] += b;
 5288               	.LM142:
 5289 2506 CD56      		subi r28,lo8(-147)
 5290 2508 DF4F      		sbci r29,hi8(-147)
 5291 250a 8880      		ld r8,Y
 5292 250c 9980      		ldd r9,Y+1
 5293 250e AA80      		ldd r10,Y+2
 5294 2510 BB80      		ldd r11,Y+3
 5295 2512 C359      		subi r28,lo8(147)
 5296 2514 D040      		sbci r29,hi8(147)
 5297 2516 680D      		add r22,r8
 5298 2518 791D      		adc r23,r9
 5299 251a 8A1D      		adc r24,r10
 5300 251c 9B1D      		adc r25,r11
 5301 251e 1496      		adiw r26,4
 5302 2520 6D93      		st X+,r22
 5303 2522 7D93      		st X+,r23
 5304 2524 8D93      		st X+,r24
 5305 2526 9C93      		st X,r25
 5306 2528 1797      		sbiw r26,4+3
 249:../freeRTOS750/lib_iinchip/md5.c **** 	state[2] += c;
 5308               	.LM143:
 5309 252a C956      		subi r28,lo8(-151)
 5310 252c DF4F      		sbci r29,hi8(-151)
 5311 252e 8880      		ld r8,Y
 5312 2530 9980      		ldd r9,Y+1
 5313 2532 AA80      		ldd r10,Y+2
 5314 2534 BB80      		ldd r11,Y+3
 5315 2536 C759      		subi r28,lo8(151)
 5316 2538 D040      		sbci r29,hi8(151)
 5317 253a 480C      		add r4,r8
 5318 253c 591C      		adc r5,r9
 5319 253e 6A1C      		adc r6,r10
 5320 2540 7B1C      		adc r7,r11
 5321 2542 1896      		adiw r26,8
 5322 2544 4D92      		st X+,r4
 5323 2546 5D92      		st X+,r5
 5324 2548 6D92      		st X+,r6
 5325 254a 7C92      		st X,r7
 5326 254c 1B97      		sbiw r26,8+3
 250:../freeRTOS750/lib_iinchip/md5.c **** 	state[3] += d;
 5328               	.LM144:
 5329 254e CF57      		subi r28,lo8(-129)
 5330 2550 DF4F      		sbci r29,hi8(-129)
 5331 2552 8881      		ld r24,Y
 5332 2554 9981      		ldd r25,Y+1
 5333 2556 AA81      		ldd r26,Y+2
 5334 2558 BB81      		ldd r27,Y+3
 5335 255a C158      		subi r28,lo8(129)
 5336 255c D040      		sbci r29,hi8(129)
 5337 255e C556      		subi r28,lo8(-155)
 5338 2560 DF4F      		sbci r29,hi8(-155)
 5339 2562 4880      		ld r4,Y
 5340 2564 5980      		ldd r5,Y+1
 5341 2566 6A80      		ldd r6,Y+2
 5342 2568 7B80      		ldd r7,Y+3
 5343 256a CB59      		subi r28,lo8(155)
 5344 256c D040      		sbci r29,hi8(155)
 5345 256e 840D      		add r24,r4
 5346 2570 951D      		adc r25,r5
 5347 2572 A61D      		adc r26,r6
 5348 2574 B71D      		adc r27,r7
 5349 2576 CF56      		subi r28,lo8(-145)
 5350 2578 DF4F      		sbci r29,hi8(-145)
 5351 257a E881      		ld r30,Y
 5352 257c F981      		ldd r31,Y+1
 5353 257e C159      		subi r28,lo8(145)
 5354 2580 D040      		sbci r29,hi8(145)
 5355 2582 8487      		std Z+12,r24
 5356 2584 9587      		std Z+13,r25
 5357 2586 A687      		std Z+14,r26
 5358 2588 B787      		std Z+15,r27
 253:../freeRTOS750/lib_iinchip/md5.c **** 	memset(&x,0,sizeof(x));
 5360               	.LM145:
 5361 258a FE01      		movw r30,r28
 5362 258c 3196      		adiw r30,1
 5363 258e DF01      		movw r26,r30
 5364 2590 80E4      		ldi r24,lo8(64)
 5365 2592 482E      		mov r4,r24
 5366               		0:
 5367 2594 1D92      		st X+,__zero_reg__
 5368 2596 4A94      		dec r4
 5369 2598 01F4      		brne 0b
 5370               	/* epilogue start */
 254:../freeRTOS750/lib_iinchip/md5.c **** }
 5372               	.LM146:
 5373 259a CE55      		subi r28,94
 5374 259c DF4F      		sbci r29,-1
 5375 259e 0FB6      		in __tmp_reg__,__SREG__
 5376 25a0 F894      		cli
 5377 25a2 DEBF      		out __SP_H__,r29
 5378 25a4 0FBE      		out __SREG__,__tmp_reg__
 5379 25a6 CDBF      		out __SP_L__,r28
 5380 25a8 DF91      		pop r29
 5381 25aa CF91      		pop r28
 5382 25ac 1F91      		pop r17
 5383 25ae 0F91      		pop r16
 5384 25b0 FF90      		pop r15
 5385 25b2 EF90      		pop r14
 5386 25b4 DF90      		pop r13
 5387 25b6 CF90      		pop r12
 5388 25b8 BF90      		pop r11
 5389 25ba AF90      		pop r10
 5390 25bc 9F90      		pop r9
 5391 25be 8F90      		pop r8
 5392 25c0 7F90      		pop r7
 5393 25c2 6F90      		pop r6
 5394 25c4 5F90      		pop r5
 5395 25c6 4F90      		pop r4
 5396 25c8 3F90      		pop r3
 5397 25ca 2F90      		pop r2
 5398 25cc 0895      		ret
 5403               	.Lscope6:
 5405               		.stabd	78,0,0
 5408               	.global	md5_init
 5410               	md5_init:
 5411               		.stabd	46,0,0
  91:../freeRTOS750/lib_iinchip/md5.c **** {
 5413               	.LM147:
 5414               	.LFBB7:
 5415               	/* prologue: function */
 5416               	/* frame size = 0 */
 5417               	/* stack size = 0 */
 5418               	.L__stack_usage = 0
 5419 25ce FC01      		movw r30,r24
  92:../freeRTOS750/lib_iinchip/md5.c **** 	context->count[0] = context->count[1] = 0;
 5421               	.LM148:
 5422 25d0 148A      		std Z+20,__zero_reg__
 5423 25d2 158A      		std Z+21,__zero_reg__
 5424 25d4 168A      		std Z+22,__zero_reg__
 5425 25d6 178A      		std Z+23,__zero_reg__
 5426 25d8 108A      		std Z+16,__zero_reg__
 5427 25da 118A      		std Z+17,__zero_reg__
 5428 25dc 128A      		std Z+18,__zero_reg__
 5429 25de 138A      		std Z+19,__zero_reg__
  95:../freeRTOS750/lib_iinchip/md5.c **** 	context->state[0] = 0x67452301;
 5431               	.LM149:
 5432 25e0 81E0      		ldi r24,lo8(1)
 5433 25e2 93E2      		ldi r25,lo8(35)
 5434 25e4 A5E4      		ldi r26,lo8(69)
 5435 25e6 B7E6      		ldi r27,lo8(103)
 5436 25e8 8083      		st Z,r24
 5437 25ea 9183      		std Z+1,r25
 5438 25ec A283      		std Z+2,r26
 5439 25ee B383      		std Z+3,r27
  96:../freeRTOS750/lib_iinchip/md5.c **** 	context->state[1] = 0xefcdab89;
 5441               	.LM150:
 5442 25f0 49E8      		ldi r20,lo8(-119)
 5443 25f2 5BEA      		ldi r21,lo8(-85)
 5444 25f4 6DEC      		ldi r22,lo8(-51)
 5445 25f6 7FEE      		ldi r23,lo8(-17)
 5446 25f8 4483      		std Z+4,r20
 5447 25fa 5583      		std Z+5,r21
 5448 25fc 6683      		std Z+6,r22
 5449 25fe 7783      		std Z+7,r23
  97:../freeRTOS750/lib_iinchip/md5.c **** 	context->state[2] = 0x98badcfe;
 5451               	.LM151:
 5452 2600 4EEF      		ldi r20,lo8(-2)
 5453 2602 5CED      		ldi r21,lo8(-36)
 5454 2604 6AEB      		ldi r22,lo8(-70)
 5455 2606 78E9      		ldi r23,lo8(-104)
 5456 2608 4087      		std Z+8,r20
 5457 260a 5187      		std Z+9,r21
 5458 260c 6287      		std Z+10,r22
 5459 260e 7387      		std Z+11,r23
  98:../freeRTOS750/lib_iinchip/md5.c **** 	context->state[3] = 0x10325476;
 5461               	.LM152:
 5462 2610 46E7      		ldi r20,lo8(118)
 5463 2612 54E5      		ldi r21,lo8(84)
 5464 2614 62E3      		ldi r22,lo8(50)
 5465 2616 70E1      		ldi r23,lo8(16)
 5466 2618 4487      		std Z+12,r20
 5467 261a 5587      		std Z+13,r21
 5468 261c 6687      		std Z+14,r22
 5469 261e 7787      		std Z+15,r23
 5470 2620 0895      		ret
 5472               	.Lscope7:
 5474               		.stabd	78,0,0
 5479               	.global	md5_update
 5481               	md5_update:
 5482               		.stabd	46,0,0
 106:../freeRTOS750/lib_iinchip/md5.c **** {
 5484               	.LM153:
 5485               	.LFBB8:
 5486 2622 6F92      		push r6
 5487 2624 7F92      		push r7
 5488 2626 8F92      		push r8
 5489 2628 9F92      		push r9
 5490 262a AF92      		push r10
 5491 262c BF92      		push r11
 5492 262e CF92      		push r12
 5493 2630 DF92      		push r13
 5494 2632 EF92      		push r14
 5495 2634 FF92      		push r15
 5496 2636 0F93      		push r16
 5497 2638 1F93      		push r17
 5498 263a CF93      		push r28
 5499 263c DF93      		push r29
 5500               	/* prologue: function */
 5501               	/* frame size = 0 */
 5502               	/* stack size = 14 */
 5503               	.L__stack_usage = 14
 5504 263e EC01      		movw r28,r24
 5505 2640 8B01      		movw r16,r22
 5506 2642 4901      		movw r8,r18
 5507 2644 5A01      		movw r10,r20
 110:../freeRTOS750/lib_iinchip/md5.c **** 	index = (uint32_t)((context->count[0] >> 3) & 0x3F);
 5509               	.LM154:
 5510 2646 C888      		ldd r12,Y+16
 5511 2648 D988      		ldd r13,Y+17
 5512 264a EA88      		ldd r14,Y+18
 5513 264c FB88      		ldd r15,Y+19
 5514 264e D701      		movw r26,r14
 5515 2650 C601      		movw r24,r12
 5516 2652 73E0      		ldi r23,3
 5517               		1:
 5518 2654 B695      		lsr r27
 5519 2656 A795      		ror r26
 5520 2658 9795      		ror r25
 5521 265a 8795      		ror r24
 5522 265c 7A95      		dec r23
 5523 265e 01F4      		brne 1b
 5524 2660 8F73      		andi r24,63
 5525 2662 9927      		clr r25
 5526 2664 AA27      		clr r26
 5527 2666 BB27      		clr r27
 113:../freeRTOS750/lib_iinchip/md5.c **** 	if ((context->count[0] += ((uint32_t)inputLen << 3)) < ((uint32_t)inputLen << 3))
 5529               	.LM155:
 5530 2668 BA01      		movw r22,r20
 5531 266a A901      		movw r20,r18
 5532 266c E3E0      		ldi r30,3
 5533               		1:
 5534 266e 440F      		lsl r20
 5535 2670 551F      		rol r21
 5536 2672 661F      		rol r22
 5537 2674 771F      		rol r23
 5538 2676 EA95      		dec r30
 5539 2678 01F4      		brne 1b
 5540 267a C40E      		add r12,r20
 5541 267c D51E      		adc r13,r21
 5542 267e E61E      		adc r14,r22
 5543 2680 F71E      		adc r15,r23
 5544 2682 C88A      		std Y+16,r12
 5545 2684 D98A      		std Y+17,r13
 5546 2686 EA8A      		std Y+18,r14
 5547 2688 FB8A      		std Y+19,r15
 5548 268a C416      		cp r12,r20
 5549 268c D506      		cpc r13,r21
 5550 268e E606      		cpc r14,r22
 5551 2690 F706      		cpc r15,r23
 5552 2692 00F4      		brsh .L13
 114:../freeRTOS750/lib_iinchip/md5.c **** 		context->count[1]++;
 5554               	.LM156:
 5555 2694 4C89      		ldd r20,Y+20
 5556 2696 5D89      		ldd r21,Y+21
 5557 2698 6E89      		ldd r22,Y+22
 5558 269a 7F89      		ldd r23,Y+23
 5559 269c 4F5F      		subi r20,-1
 5560 269e 5F4F      		sbci r21,-1
 5561 26a0 6F4F      		sbci r22,-1
 5562 26a2 7F4F      		sbci r23,-1
 5563 26a4 4C8B      		std Y+20,r20
 5564 26a6 5D8B      		std Y+21,r21
 5565 26a8 6E8B      		std Y+22,r22
 5566 26aa 7F8B      		std Y+23,r23
 5567               	.L13:
 115:../freeRTOS750/lib_iinchip/md5.c **** 	context->count[1] += ((uint32_t)inputLen >> 29);
 5569               	.LM157:
 5570 26ac 7501      		movw r14,r10
 5571 26ae 6401      		movw r12,r8
 5572 26b0 5DE1      		ldi r21,29
 5573               		1:
 5574 26b2 F694      		lsr r15
 5575 26b4 E794      		ror r14
 5576 26b6 D794      		ror r13
 5577 26b8 C794      		ror r12
 5578 26ba 5A95      		dec r21
 5579 26bc 01F4      		brne 1b
 5580 26be 4C89      		ldd r20,Y+20
 5581 26c0 5D89      		ldd r21,Y+21
 5582 26c2 6E89      		ldd r22,Y+22
 5583 26c4 7F89      		ldd r23,Y+23
 5584 26c6 4C0D      		add r20,r12
 5585 26c8 5D1D      		adc r21,r13
 5586 26ca 6E1D      		adc r22,r14
 5587 26cc 7F1D      		adc r23,r15
 5588 26ce 4C8B      		std Y+20,r20
 5589 26d0 5D8B      		std Y+21,r21
 5590 26d2 6E8B      		std Y+22,r22
 5591 26d4 7F8B      		std Y+23,r23
 117:../freeRTOS750/lib_iinchip/md5.c **** 	partLen = 64 - index;
 5593               	.LM158:
 5594 26d6 60E4      		ldi r22,lo8(64)
 5595 26d8 C62E      		mov r12,r22
 5596 26da D12C      		mov r13,__zero_reg__
 5597 26dc E12C      		mov r14,__zero_reg__
 5598 26de F12C      		mov r15,__zero_reg__
 5599 26e0 C81A      		sub r12,r24
 5600 26e2 D90A      		sbc r13,r25
 5601 26e4 EA0A      		sbc r14,r26
 5602 26e6 FB0A      		sbc r15,r27
 120:../freeRTOS750/lib_iinchip/md5.c **** 	if (inputLen >= partLen)
 5604               	.LM159:
 5605 26e8 8C14      		cp r8,r12
 5606 26ea 9D04      		cpc r9,r13
 5607 26ec AE04      		cpc r10,r14
 5608 26ee BF04      		cpc r11,r15
 5609 26f0 00F0      		brlo .L17
 122:../freeRTOS750/lib_iinchip/md5.c **** 		memcpy(&context->buffer[index], input, partLen);
 5611               	.LM160:
 5612 26f2 9C01      		movw r18,r24
 5613 26f4 285E      		subi r18,-24
 5614 26f6 3F4F      		sbci r19,-1
 5615 26f8 2C0F      		add r18,r28
 5616 26fa 3D1F      		adc r19,r29
 5617 26fc A601      		movw r20,r12
 5618 26fe B801      		movw r22,r16
 5619 2700 C901      		movw r24,r18
 5620 2702 0E94 0000 		call memcpy
 123:../freeRTOS750/lib_iinchip/md5.c **** 		md5_transform(context->state, context->buffer);
 5622               	.LM161:
 5623 2706 7C2E      		mov r7,r28
 5624 2708 6D2E      		mov r6,r29
 5625 270a BE01      		movw r22,r28
 5626 270c 685E      		subi r22,-24
 5627 270e 7F4F      		sbci r23,-1
 5628 2710 CE01      		movw r24,r28
 5629 2712 0E94 0000 		call md5_transform
 125:../freeRTOS750/lib_iinchip/md5.c **** 		for (i = partLen; i + 63 < inputLen; i += 64)
 5631               	.LM162:
 5632 2716 00C0      		rjmp .L15
 5633               	.L16:
 105:../freeRTOS750/lib_iinchip/md5.c **** void md5_update(md5_ctx * context, uint8_t *input, uint32_t inputLen)
 5635               	.LM163:
 5636 2718 B801      		movw r22,r16
 5637 271a 6C0D      		add r22,r12
 5638 271c 7D1D      		adc r23,r13
 126:../freeRTOS750/lib_iinchip/md5.c **** 			md5_transform(context->state, &input[i]);
 5640               	.LM164:
 5641 271e 872D      		mov r24,r7
 5642 2720 962D      		mov r25,r6
 5643 2722 0E94 0000 		call md5_transform
 125:../freeRTOS750/lib_iinchip/md5.c **** 		for (i = partLen; i + 63 < inputLen; i += 64)
 5645               	.LM165:
 5646 2726 80E4      		ldi r24,64
 5647 2728 C80E      		add r12,r24
 5648 272a D11C      		adc r13,__zero_reg__
 5649 272c E11C      		adc r14,__zero_reg__
 5650 272e F11C      		adc r15,__zero_reg__
 5651               	.L15:
 125:../freeRTOS750/lib_iinchip/md5.c **** 		for (i = partLen; i + 63 < inputLen; i += 64)
 5653               	.LM166:
 5654 2730 D701      		movw r26,r14
 5655 2732 C601      		movw r24,r12
 5656 2734 CF96      		adiw r24,63
 5657 2736 A11D      		adc r26,__zero_reg__
 5658 2738 B11D      		adc r27,__zero_reg__
 5659 273a 8815      		cp r24,r8
 5660 273c 9905      		cpc r25,r9
 5661 273e AA05      		cpc r26,r10
 5662 2740 BB05      		cpc r27,r11
 5663 2742 00F0      		brlo .L16
 127:../freeRTOS750/lib_iinchip/md5.c **** 		index = 0;
 5665               	.LM167:
 5666 2744 80E0      		ldi r24,0
 5667 2746 90E0      		ldi r25,0
 5668 2748 DC01      		movw r26,r24
 5669 274a 00C0      		rjmp .L14
 5670               	.L17:
 130:../freeRTOS750/lib_iinchip/md5.c **** 		i = 0;
 5672               	.LM168:
 5673 274c C12C      		mov r12,__zero_reg__
 5674 274e D12C      		mov r13,__zero_reg__
 5675 2750 7601      		movw r14,r12
 5676               	.L14:
 133:../freeRTOS750/lib_iinchip/md5.c **** 	memcpy(&context->buffer[index], &input[i], inputLen - i);
 5678               	.LM169:
 5679 2752 9C01      		movw r18,r24
 5680 2754 285E      		subi r18,-24
 5681 2756 3F4F      		sbci r19,-1
 5682 2758 2C0F      		add r18,r28
 5683 275a 3D1F      		adc r19,r29
 5684 275c 8C18      		sub r8,r12
 5685 275e 9D08      		sbc r9,r13
 5686 2760 C00E      		add r12,r16
 5687 2762 D11E      		adc r13,r17
 5688 2764 A401      		movw r20,r8
 5689 2766 B601      		movw r22,r12
 5690 2768 C901      		movw r24,r18
 5691               	/* epilogue start */
 134:../freeRTOS750/lib_iinchip/md5.c **** }
 5693               	.LM170:
 5694 276a DF91      		pop r29
 5695 276c CF91      		pop r28
 5696 276e 1F91      		pop r17
 5697 2770 0F91      		pop r16
 5698 2772 FF90      		pop r15
 5699 2774 EF90      		pop r14
 5700 2776 DF90      		pop r13
 5701 2778 CF90      		pop r12
 5702 277a BF90      		pop r11
 5703 277c AF90      		pop r10
 5704 277e 9F90      		pop r9
 5705 2780 8F90      		pop r8
 5706 2782 7F90      		pop r7
 5707 2784 6F90      		pop r6
 133:../freeRTOS750/lib_iinchip/md5.c **** 	memcpy(&context->buffer[index], &input[i], inputLen - i);
 5709               	.LM171:
 5710 2786 0C94 0000 		jmp memcpy
 5717               	.Lscope8:
 5719               		.stabd	78,0,0
 5723               	.global	md5_final
 5725               	md5_final:
 5726               		.stabd	46,0,0
 141:../freeRTOS750/lib_iinchip/md5.c **** {
 5728               	.LM172:
 5729               	.LFBB9:
 5730 278a EF92      		push r14
 5731 278c FF92      		push r15
 5732 278e 0F93      		push r16
 5733 2790 1F93      		push r17
 5734 2792 CF93      		push r28
 5735 2794 DF93      		push r29
 5736 2796 CDB7      		in r28,__SP_L__
 5737 2798 DEB7      		in r29,__SP_H__
 5738 279a 2897      		sbiw r28,8
 5739 279c 0FB6      		in __tmp_reg__,__SREG__
 5740 279e F894      		cli
 5741 27a0 DEBF      		out __SP_H__,r29
 5742 27a2 0FBE      		out __SREG__,__tmp_reg__
 5743 27a4 CDBF      		out __SP_L__,r28
 5744               	/* prologue: function */
 5745               	/* frame size = 8 */
 5746               	/* stack size = 14 */
 5747               	.L__stack_usage = 14
 5748 27a6 7C01      		movw r14,r24
 5749 27a8 8B01      		movw r16,r22
 146:../freeRTOS750/lib_iinchip/md5.c **** 	md5_encode(bits, context->count, 8);
 5751               	.LM173:
 5752 27aa 605F      		subi r22,-16
 5753 27ac 7F4F      		sbci r23,-1
 5754 27ae 28E0      		ldi r18,lo8(8)
 5755 27b0 30E0      		ldi r19,0
 5756 27b2 40E0      		ldi r20,0
 5757 27b4 50E0      		ldi r21,0
 5758 27b6 CE01      		movw r24,r28
 5759 27b8 0196      		adiw r24,1
 5760 27ba 0E94 0000 		call md5_encode
 149:../freeRTOS750/lib_iinchip/md5.c **** 	index  = (uint32_t)((context->count[0] >> 3) & 0x3f);
 5762               	.LM174:
 5763 27be F801      		movw r30,r16
 5764 27c0 8089      		ldd r24,Z+16
 5765 27c2 9189      		ldd r25,Z+17
 5766 27c4 A289      		ldd r26,Z+18
 5767 27c6 B389      		ldd r27,Z+19
 5768 27c8 F3E0      		ldi r31,3
 5769               		1:
 5770 27ca B695      		lsr r27
 5771 27cc A795      		ror r26
 5772 27ce 9795      		ror r25
 5773 27d0 8795      		ror r24
 5774 27d2 FA95      		dec r31
 5775 27d4 01F4      		brne 1b
 5776 27d6 8F73      		andi r24,63
 5777 27d8 9927      		clr r25
 5778 27da AA27      		clr r26
 5779 27dc BB27      		clr r27
 150:../freeRTOS750/lib_iinchip/md5.c **** 	padLen = (index < 56) ? (56 - index) : (120 - index);
 5781               	.LM175:
 5782 27de 8833      		cpi r24,56
 5783 27e0 9105      		cpc r25,__zero_reg__
 5784 27e2 A105      		cpc r26,__zero_reg__
 5785 27e4 B105      		cpc r27,__zero_reg__
 5786 27e6 00F4      		brsh .L19
 150:../freeRTOS750/lib_iinchip/md5.c **** 	padLen = (index < 56) ? (56 - index) : (120 - index);
 5788               	.LM176:
 5789 27e8 28E3      		ldi r18,lo8(56)
 5790 27ea 30E0      		ldi r19,0
 5791 27ec 40E0      		ldi r20,0
 5792 27ee 50E0      		ldi r21,0
 5793 27f0 00C0      		rjmp .L21
 5794               	.L19:
 150:../freeRTOS750/lib_iinchip/md5.c **** 	padLen = (index < 56) ? (56 - index) : (120 - index);
 5796               	.LM177:
 5797 27f2 28E7      		ldi r18,lo8(120)
 5798 27f4 30E0      		ldi r19,0
 5799 27f6 40E0      		ldi r20,0
 5800 27f8 50E0      		ldi r21,0
 5801               	.L21:
 5802 27fa 281B      		sub r18,r24
 5803 27fc 390B      		sbc r19,r25
 5804 27fe 4A0B      		sbc r20,r26
 5805 2800 5B0B      		sbc r21,r27
 151:../freeRTOS750/lib_iinchip/md5.c **** 	md5_update(context, padding, padLen);
 5807               	.LM178:
 5808 2802 60E0      		ldi r22,lo8(padding)
 5809 2804 70E0      		ldi r23,hi8(padding)
 5810 2806 C801      		movw r24,r16
 5811 2808 0E94 0000 		call md5_update
 154:../freeRTOS750/lib_iinchip/md5.c **** 	md5_update(context, bits, 8);
 5813               	.LM179:
 5814 280c 28E0      		ldi r18,lo8(8)
 5815 280e 30E0      		ldi r19,0
 5816 2810 40E0      		ldi r20,0
 5817 2812 50E0      		ldi r21,0
 5818 2814 BE01      		movw r22,r28
 5819 2816 6F5F      		subi r22,-1
 5820 2818 7F4F      		sbci r23,-1
 5821 281a C801      		movw r24,r16
 5822 281c 0E94 0000 		call md5_update
 156:../freeRTOS750/lib_iinchip/md5.c **** 	md5_encode(digest, context->state, 16);
 5824               	.LM180:
 5825 2820 20E1      		ldi r18,lo8(16)
 5826 2822 30E0      		ldi r19,0
 5827 2824 40E0      		ldi r20,0
 5828 2826 50E0      		ldi r21,0
 5829 2828 B801      		movw r22,r16
 5830 282a C701      		movw r24,r14
 5831 282c 0E94 0000 		call md5_encode
 159:../freeRTOS750/lib_iinchip/md5.c **** 	memset((void*)context,0,sizeof(*context));
 5833               	.LM181:
 5834 2830 88E5      		ldi r24,lo8(88)
 5835 2832 F801      		movw r30,r16
 5836               		0:
 5837 2834 1192      		st Z+,__zero_reg__
 5838 2836 8A95      		dec r24
 5839 2838 01F4      		brne 0b
 5840               	/* epilogue start */
 160:../freeRTOS750/lib_iinchip/md5.c **** }
 5842               	.LM182:
 5843 283a 2896      		adiw r28,8
 5844 283c 0FB6      		in __tmp_reg__,__SREG__
 5845 283e F894      		cli
 5846 2840 DEBF      		out __SP_H__,r29
 5847 2842 0FBE      		out __SREG__,__tmp_reg__
 5848 2844 CDBF      		out __SP_L__,r28
 5849 2846 DF91      		pop r29
 5850 2848 CF91      		pop r28
 5851 284a 1F91      		pop r17
 5852 284c 0F91      		pop r16
 5853 284e FF90      		pop r15
 5854 2850 EF90      		pop r14
 5855 2852 0895      		ret
 5862               	.Lscope9:
 5864               		.stabd	78,0,0
 5865               		.data
 5868               	padding:
 5869 0000 80        		.byte	-128
 5870 0001 00        		.byte	0
 5871 0002 00        		.byte	0
 5872 0003 00        		.byte	0
 5873 0004 00        		.byte	0
 5874 0005 00        		.byte	0
 5875 0006 00        		.byte	0
 5876 0007 00        		.byte	0
 5877 0008 00        		.byte	0
 5878 0009 00        		.byte	0
 5879 000a 00        		.byte	0
 5880 000b 00        		.byte	0
 5881 000c 00        		.byte	0
 5882 000d 00        		.byte	0
 5883 000e 00        		.byte	0
 5884 000f 00        		.byte	0
 5885 0010 00        		.byte	0
 5886 0011 00        		.byte	0
 5887 0012 00        		.byte	0
 5888 0013 00        		.byte	0
 5889 0014 00        		.byte	0
 5890 0015 00        		.byte	0
 5891 0016 00        		.byte	0
 5892 0017 00        		.byte	0
 5893 0018 00        		.byte	0
 5894 0019 00        		.byte	0
 5895 001a 00        		.byte	0
 5896 001b 00        		.byte	0
 5897 001c 00        		.byte	0
 5898 001d 00        		.byte	0
 5899 001e 00        		.byte	0
 5900 001f 00        		.byte	0
 5901 0020 00        		.byte	0
 5902 0021 00        		.byte	0
 5903 0022 00        		.byte	0
 5904 0023 00        		.byte	0
 5905 0024 00        		.byte	0
 5906 0025 00        		.byte	0
 5907 0026 00        		.byte	0
 5908 0027 00        		.byte	0
 5909 0028 00        		.byte	0
 5910 0029 00        		.byte	0
 5911 002a 00        		.byte	0
 5912 002b 00        		.byte	0
 5913 002c 00        		.byte	0
 5914 002d 00        		.byte	0
 5915 002e 00        		.byte	0
 5916 002f 00        		.byte	0
 5917 0030 00        		.byte	0
 5918 0031 00        		.byte	0
 5919 0032 00        		.byte	0
 5920 0033 00        		.byte	0
 5921 0034 00        		.byte	0
 5922 0035 00        		.byte	0
 5923 0036 00        		.byte	0
 5924 0037 00        		.byte	0
 5925 0038 00        		.byte	0
 5926 0039 00        		.byte	0
 5927 003a 00        		.byte	0
 5928 003b 00        		.byte	0
 5929 003c 00        		.byte	0
 5930 003d 00        		.byte	0
 5931 003e 00        		.byte	0
 5932 003f 00        		.byte	0
 5934               		.text
 5936               	.Letext0:
 5937               		.ident	"GCC: (GNU) 4.7.2"
 5938               	.global __do_copy_data
DEFINED SYMBOLS
                            *ABS*:00000000 md5.c
     /tmp/ccaiEq5H.s:2      *ABS*:0000003e __SP_H__
     /tmp/ccaiEq5H.s:3      *ABS*:0000003d __SP_L__
     /tmp/ccaiEq5H.s:4      *ABS*:0000003f __SREG__
     /tmp/ccaiEq5H.s:5      *ABS*:00000000 __tmp_reg__
     /tmp/ccaiEq5H.s:6      *ABS*:00000001 __zero_reg__
     /tmp/ccaiEq5H.s:82     .text:00000000 md5_encode
     /tmp/ccaiEq5H.s:180    .text:00000066 FF
     /tmp/ccaiEq5H.s:331    .text:0000014a GG
     /tmp/ccaiEq5H.s:484    .text:00000232 HH
     /tmp/ccaiEq5H.s:620    .text:000002f6 II
     /tmp/ccaiEq5H.s:759    .text:000003ce md5_transform
     /tmp/ccaiEq5H.s:5410   .text:000025ce md5_init
     /tmp/ccaiEq5H.s:5481   .text:00002622 md5_update
     /tmp/ccaiEq5H.s:5725   .text:0000278a md5_final
     /tmp/ccaiEq5H.s:5868   .data:00000000 padding

UNDEFINED SYMBOLS
memcpy
__do_copy_data
